	.file	"main.cpp"
	.text
.Ltext0:
	.file 0 "/home/si/Beat-Up-Boys" "main.cpp"
	.section	.text._ZSt23__is_constant_evaluatedv,"axG",@progbits,_ZSt23__is_constant_evaluatedv,comdat
	.weak	_ZSt23__is_constant_evaluatedv
	.type	_ZSt23__is_constant_evaluatedv, @function
_ZSt23__is_constant_evaluatedv:
.LFB1:
	.file 1 "/usr/include/x86_64-linux-gnu/c++/13/bits/c++config.h"
	.loc 1 541 3
	.cfi_startproc
	endbr64
	pushq	%rbp
	.cfi_def_cfa_offset 16
	.cfi_offset 6, -16
	movq	%rsp, %rbp
	.cfi_def_cfa_register 6
	.loc 1 544 49
	movl	$0, %eax
	.loc 1 551 3
	popq	%rbp
	.cfi_def_cfa 7, 8
	ret
	.cfi_endproc
.LFE1:
	.size	_ZSt23__is_constant_evaluatedv, .-_ZSt23__is_constant_evaluatedv
	.section	.text._ZnwmPv,"axG",@progbits,_ZnwmPv,comdat
	.weak	_ZnwmPv
	.type	_ZnwmPv, @function
_ZnwmPv:
.LFB39:
	.file 2 "/usr/include/c++/13/new"
	.loc 2 175 1
	.cfi_startproc
	endbr64
	pushq	%rbp
	.cfi_def_cfa_offset 16
	.cfi_offset 6, -16
	movq	%rsp, %rbp
	.cfi_def_cfa_register 6
	movq	%rdi, -8(%rbp)
	movq	%rsi, -16(%rbp)
	.loc 2 175 10
	movq	-16(%rbp), %rax
	.loc 2 175 15
	popq	%rbp
	.cfi_def_cfa 7, 8
	ret
	.cfi_endproc
.LFE39:
	.size	_ZnwmPv, .-_ZnwmPv
	.section	.text._ZSt21is_constant_evaluatedv,"axG",@progbits,_ZSt21is_constant_evaluatedv,comdat
	.weak	_ZSt21is_constant_evaluatedv
	.type	_ZSt21is_constant_evaluatedv, @function
_ZSt21is_constant_evaluatedv:
.LFB56:
	.file 3 "/usr/include/c++/13/type_traits"
	.loc 3 3650 3
	.cfi_startproc
	endbr64
	pushq	%rbp
	.cfi_def_cfa_offset 16
	.cfi_offset 6, -16
	movq	%rsp, %rbp
	.cfi_def_cfa_register 6
	.loc 3 3652 49
	movl	$0, %eax
	.loc 3 3656 3
	popq	%rbp
	.cfi_def_cfa 7, 8
	ret
	.cfi_endproc
.LFE56:
	.size	_ZSt21is_constant_evaluatedv, .-_ZSt21is_constant_evaluatedv
	.section	.text._ZNSt11char_traitsIcE6assignERcRKc,"axG",@progbits,_ZNSt11char_traitsIcE6assignERcRKc,comdat
	.weak	_ZNSt11char_traitsIcE6assignERcRKc
	.type	_ZNSt11char_traitsIcE6assignERcRKc, @function
_ZNSt11char_traitsIcE6assignERcRKc:
.LFB247:
	.file 4 "/usr/include/c++/13/bits/char_traits.h"
	.loc 4 351 7
	.cfi_startproc
	endbr64
	pushq	%rbp
	.cfi_def_cfa_offset 16
	.cfi_offset 6, -16
	movq	%rsp, %rbp
	.cfi_def_cfa_register 6
	subq	$16, %rsp
	movq	%rdi, -8(%rbp)
	movq	%rsi, -16(%rbp)
	.loc 4 354 34
	call	_ZSt23__is_constant_evaluatedv
	.loc 4 354 2 discriminator 1
	testb	%al, %al
	je	.L8
	.loc 4 355 21
	movq	-16(%rbp), %rdx
	movq	-8(%rbp), %rax
	movq	%rdx, %rsi
	movq	%rax, %rdi
	call	_ZSt12construct_atIcJRKcEEDTgsnwcvPvLi0E_T_pispcl7declvalIT0_EEEEPS3_DpOS4_
	.loc 4 359 7
	jmp	.L10
.L8:
	.loc 4 358 9
	movq	-16(%rbp), %rax
	movzbl	(%rax), %edx
	.loc 4 358 7
	movq	-8(%rbp), %rax
	movb	%dl, (%rax)
.L10:
	.loc 4 359 7
	nop
	leave
	.cfi_def_cfa 7, 8
	ret
	.cfi_endproc
.LFE247:
	.size	_ZNSt11char_traitsIcE6assignERcRKc, .-_ZNSt11char_traitsIcE6assignERcRKc
	.section	.text._ZNSt11char_traitsIcE6lengthEPKc,"axG",@progbits,_ZNSt11char_traitsIcE6lengthEPKc,comdat
	.weak	_ZNSt11char_traitsIcE6lengthEPKc
	.type	_ZNSt11char_traitsIcE6lengthEPKc, @function
_ZNSt11char_traitsIcE6lengthEPKc:
.LFB251:
	.loc 4 393 7
	.cfi_startproc
	endbr64
	pushq	%rbp
	.cfi_def_cfa_offset 16
	.cfi_offset 6, -16
	movq	%rsp, %rbp
	.cfi_def_cfa_register 6
	subq	$16, %rsp
	movq	%rdi, -8(%rbp)
	.loc 4 396 34
	call	_ZSt23__is_constant_evaluatedv
	.loc 4 396 2 discriminator 1
	testb	%al, %al
	je	.L12
	.loc 4 397 52
	movq	-8(%rbp), %rax
	movq	%rax, %rdi
	call	_ZN9__gnu_cxx11char_traitsIcE6lengthEPKc
	.loc 4 397 56
	jmp	.L13
.L12:
	.loc 4 399 25
	movq	-8(%rbp), %rax
	movq	%rax, %rdi
	call	strlen@PLT
	.loc 4 399 29
	nop
.L13:
	.loc 4 400 7
	leave
	.cfi_def_cfa 7, 8
	ret
	.cfi_endproc
.LFE251:
	.size	_ZNSt11char_traitsIcE6lengthEPKc, .-_ZNSt11char_traitsIcE6lengthEPKc
	.section	.text._ZNSt11char_traitsIcE4copyEPcPKcm,"axG",@progbits,_ZNSt11char_traitsIcE4copyEPcPKcm,comdat
	.weak	_ZNSt11char_traitsIcE4copyEPcPKcm
	.type	_ZNSt11char_traitsIcE4copyEPcPKcm, @function
_ZNSt11char_traitsIcE4copyEPcPKcm:
.LFB254:
	.loc 4 427 7
	.cfi_startproc
	endbr64
	pushq	%rbp
	.cfi_def_cfa_offset 16
	.cfi_offset 6, -16
	movq	%rsp, %rbp
	.cfi_def_cfa_register 6
	subq	$32, %rsp
	movq	%rdi, -8(%rbp)
	movq	%rsi, -16(%rbp)
	movq	%rdx, -24(%rbp)
	.loc 4 429 2
	cmpq	$0, -24(%rbp)
	jne	.L15
	.loc 4 430 11
	movq	-8(%rbp), %rax
	jmp	.L16
.L15:
	.loc 4 432 34
	call	_ZSt23__is_constant_evaluatedv
	.loc 4 432 2 discriminator 1
	testb	%al, %al
	je	.L17
	.loc 4 433 50
	movq	-24(%rbp), %rdx
	movq	-16(%rbp), %rcx
	movq	-8(%rbp), %rax
	movq	%rcx, %rsi
	movq	%rax, %rdi
	call	_ZN9__gnu_cxx11char_traitsIcE4copyEPcPKcm
	.loc 4 433 66
	jmp	.L16
.L17:
	.loc 4 435 49
	movq	-8(%rbp), %rdx
	movq	-16(%rbp), %rax
	movq	%rdx, %rcx
	movq	%rax, %rsi
	movq	-24(%rbp), %rax
	movq	%rax, %rdx
	movq	%rcx, %rdi
	call	memcpy@PLT
	.loc 4 435 66
	nop
.L16:
	.loc 4 436 7
	leave
	.cfi_def_cfa 7, 8
	ret
	.cfi_endproc
.LFE254:
	.size	_ZNSt11char_traitsIcE4copyEPcPKcm, .-_ZNSt11char_traitsIcE4copyEPcPKcm
	.section	.text._ZN2sf15ContextSettingsC2Ejjjjjjb,"axG",@progbits,_ZN2sf15ContextSettingsC5Ejjjjjjb,comdat
	.align 2
	.weak	_ZN2sf15ContextSettingsC2Ejjjjjjb
	.type	_ZN2sf15ContextSettingsC2Ejjjjjjb, @function
_ZN2sf15ContextSettingsC2Ejjjjjjb:
.LFB3337:
	.file 5 "/usr/include/SFML/Window/ContextSettings.hpp"
	.loc 5 62 14
	.cfi_startproc
	endbr64
	pushq	%rbp
	.cfi_def_cfa_offset 16
	.cfi_offset 6, -16
	movq	%rsp, %rbp
	.cfi_def_cfa_register 6
	movq	%rdi, -8(%rbp)
	movl	%esi, -12(%rbp)
	movl	%edx, -16(%rbp)
	movl	%ecx, -20(%rbp)
	movl	%r8d, -24(%rbp)
	movl	%r9d, -28(%rbp)
	movl	24(%rbp), %eax
	movb	%al, -32(%rbp)
.LBB138:
	.loc 5 63 5
	movq	-8(%rbp), %rax
	movl	-12(%rbp), %edx
	movl	%edx, (%rax)
	.loc 5 64 5
	movq	-8(%rbp), %rax
	movl	-16(%rbp), %edx
	movl	%edx, 4(%rax)
	.loc 5 65 5
	movq	-8(%rbp), %rax
	movl	-20(%rbp), %edx
	movl	%edx, 8(%rax)
	.loc 5 66 5
	movq	-8(%rbp), %rax
	movl	-24(%rbp), %edx
	movl	%edx, 12(%rax)
	.loc 5 67 5
	movq	-8(%rbp), %rax
	movl	-28(%rbp), %edx
	movl	%edx, 16(%rax)
	.loc 5 68 5
	movq	-8(%rbp), %rax
	movl	16(%rbp), %edx
	movl	%edx, 20(%rax)
	.loc 5 69 5
	movq	-8(%rbp), %rax
	movzbl	-32(%rbp), %edx
	movb	%dl, 24(%rax)
.LBE138:
	.loc 5 71 5
	nop
	popq	%rbp
	.cfi_def_cfa 7, 8
	ret
	.cfi_endproc
.LFE3337:
	.size	_ZN2sf15ContextSettingsC2Ejjjjjjb, .-_ZN2sf15ContextSettingsC2Ejjjjjjb
	.weak	_ZN2sf15ContextSettingsC1Ejjjjjjb
	.set	_ZN2sf15ContextSettingsC1Ejjjjjjb,_ZN2sf15ContextSettingsC2Ejjjjjjb
	.section	.text._ZN2sf8DrawableD2Ev,"axG",@progbits,_ZN2sf8DrawableD5Ev,comdat
	.align 2
	.weak	_ZN2sf8DrawableD2Ev
	.type	_ZN2sf8DrawableD2Ev, @function
_ZN2sf8DrawableD2Ev:
.LFB3714:
	.file 6 "/usr/include/SFML/Graphics/Drawable.hpp"
	.loc 6 52 13
	.cfi_startproc
	endbr64
	pushq	%rbp
	.cfi_def_cfa_offset 16
	.cfi_offset 6, -16
	movq	%rsp, %rbp
	.cfi_def_cfa_register 6
	movq	%rdi, -8(%rbp)
.LBB139:
	.loc 6 52 25
	leaq	16+_ZTVN2sf8DrawableE(%rip), %rdx
	movq	-8(%rbp), %rax
	movq	%rdx, (%rax)
.LBE139:
	.loc 6 52 26
	nop
	popq	%rbp
	.cfi_def_cfa 7, 8
	ret
	.cfi_endproc
.LFE3714:
	.size	_ZN2sf8DrawableD2Ev, .-_ZN2sf8DrawableD2Ev
	.weak	_ZN2sf8DrawableD1Ev
	.set	_ZN2sf8DrawableD1Ev,_ZN2sf8DrawableD2Ev
	.section	.text._ZN2sf8DrawableD0Ev,"axG",@progbits,_ZN2sf8DrawableD5Ev,comdat
	.align 2
	.weak	_ZN2sf8DrawableD0Ev
	.type	_ZN2sf8DrawableD0Ev, @function
_ZN2sf8DrawableD0Ev:
.LFB3716:
	.loc 6 52 13
	.cfi_startproc
	endbr64
	pushq	%rbp
	.cfi_def_cfa_offset 16
	.cfi_offset 6, -16
	movq	%rsp, %rbp
	.cfi_def_cfa_register 6
	subq	$16, %rsp
	movq	%rdi, -8(%rbp)
	.loc 6 52 26
	movq	-8(%rbp), %rax
	movq	%rax, %rdi
	call	_ZN2sf8DrawableD1Ev
	.loc 6 52 26 is_stmt 0 discriminator 1
	movq	-8(%rbp), %rax
	movl	$8, %esi
	movq	%rax, %rdi
	call	_ZdlPvm@PLT
	.loc 6 52 26
	leave
	.cfi_def_cfa 7, 8
	ret
	.cfi_endproc
.LFE3716:
	.size	_ZN2sf8DrawableD0Ev, .-_ZN2sf8DrawableD0Ev
#APP
	.globl _ZSt21ios_base_library_initv
#NO_APP
	.section	.text._ZN2sf6StringD2Ev,"axG",@progbits,_ZN2sf6StringD5Ev,comdat
	.align 2
	.weak	_ZN2sf6StringD2Ev
	.type	_ZN2sf6StringD2Ev, @function
_ZN2sf6StringD2Ev:
.LFB4201:
	.file 7 "/usr/include/SFML/System/String.hpp"
	.loc 7 45 52 is_stmt 1
	.cfi_startproc
	endbr64
	pushq	%rbp
	.cfi_def_cfa_offset 16
	.cfi_offset 6, -16
	movq	%rsp, %rbp
	.cfi_def_cfa_register 6
	subq	$16, %rsp
	movq	%rdi, -8(%rbp)
.LBB140:
	.loc 7 45 52
	movq	-8(%rbp), %rax
	movq	%rax, %rdi
	call	_ZNSt7__cxx1112basic_stringIjSt11char_traitsIjESaIjEED1Ev
.LBE140:
	nop
	leave
	.cfi_def_cfa 7, 8
	ret
	.cfi_endproc
.LFE4201:
	.size	_ZN2sf6StringD2Ev, .-_ZN2sf6StringD2Ev
	.weak	_ZN2sf6StringD1Ev
	.set	_ZN2sf6StringD1Ev,_ZN2sf6StringD2Ev
	.section	.text._ZN2sf6SpriteD2Ev,"axG",@progbits,_ZN2sf6SpriteD5Ev,comdat
	.align 2
	.weak	_ZN2sf6SpriteD2Ev
	.type	_ZN2sf6SpriteD2Ev, @function
_ZN2sf6SpriteD2Ev:
.LFB4204:
	.file 8 "/usr/include/SFML/Graphics/Sprite.hpp"
	.loc 8 47 52
	.cfi_startproc
	endbr64
	pushq	%rbp
	.cfi_def_cfa_offset 16
	.cfi_offset 6, -16
	movq	%rsp, %rbp
	.cfi_def_cfa_register 6
	subq	$16, %rsp
	movq	%rdi, -8(%rbp)
.LBB141:
	.loc 8 47 52
	leaq	16+_ZTVN2sf6SpriteE(%rip), %rdx
	movq	-8(%rbp), %rax
	movq	%rdx, (%rax)
	leaq	56+_ZTVN2sf6SpriteE(%rip), %rdx
	movq	-8(%rbp), %rax
	movq	%rdx, 8(%rax)
	movq	-8(%rbp), %rax
	addq	$8, %rax
	movq	%rax, %rdi
	call	_ZN2sf13TransformableD2Ev@PLT
	.loc 8 47 52 is_stmt 0 discriminator 1
	movq	-8(%rbp), %rax
	movq	%rax, %rdi
	call	_ZN2sf8DrawableD2Ev
.LBE141:
	.loc 8 47 52
	nop
	leave
	.cfi_def_cfa 7, 8
	ret
	.cfi_endproc
.LFE4204:
	.size	_ZN2sf6SpriteD2Ev, .-_ZN2sf6SpriteD2Ev
	.set	.LTHUNK0,_ZN2sf6SpriteD2Ev
	.weak	_ZThn8_N2sf6SpriteD1Ev
	.type	_ZThn8_N2sf6SpriteD1Ev, @function
_ZThn8_N2sf6SpriteD1Ev:
.LFB4946:
	.loc 8 47 52 is_stmt 1
	.cfi_startproc
	endbr64
	subq	$8, %rdi
	jmp	.LTHUNK0
	.cfi_endproc
.LFE4946:
	.size	_ZThn8_N2sf6SpriteD1Ev, .-_ZThn8_N2sf6SpriteD1Ev
	.weak	_ZN2sf6SpriteD1Ev
	.set	_ZN2sf6SpriteD1Ev,_ZN2sf6SpriteD2Ev
	.section	.text._ZN2sf6SpriteD0Ev,"axG",@progbits,_ZN2sf6SpriteD5Ev,comdat
	.align 2
	.weak	_ZN2sf6SpriteD0Ev
	.type	_ZN2sf6SpriteD0Ev, @function
_ZN2sf6SpriteD0Ev:
.LFB4206:
	.loc 8 47 52
	.cfi_startproc
	endbr64
	pushq	%rbp
	.cfi_def_cfa_offset 16
	.cfi_offset 6, -16
	movq	%rsp, %rbp
	.cfi_def_cfa_register 6
	subq	$16, %rsp
	movq	%rdi, -8(%rbp)
	.loc 8 47 52
	movq	-8(%rbp), %rax
	movq	%rax, %rdi
	call	_ZN2sf6SpriteD1Ev
	.loc 8 47 52 is_stmt 0 discriminator 1
	movq	-8(%rbp), %rax
	movl	$288, %esi
	movq	%rax, %rdi
	call	_ZdlPvm@PLT
	.loc 8 47 52
	leave
	.cfi_def_cfa 7, 8
	ret
	.cfi_endproc
.LFE4206:
	.size	_ZN2sf6SpriteD0Ev, .-_ZN2sf6SpriteD0Ev
	.set	.LTHUNK1,_ZN2sf6SpriteD0Ev
	.weak	_ZThn8_N2sf6SpriteD0Ev
	.type	_ZThn8_N2sf6SpriteD0Ev, @function
_ZThn8_N2sf6SpriteD0Ev:
.LFB4947:
	.loc 8 47 52 is_stmt 1
	.cfi_startproc
	endbr64
	subq	$8, %rdi
	jmp	.LTHUNK1
	.cfi_endproc
.LFE4947:
	.size	_ZThn8_N2sf6SpriteD0Ev, .-_ZThn8_N2sf6SpriteD0Ev
	.section	.text._ZN2sf11VertexArrayD2Ev,"axG",@progbits,_ZN2sf11VertexArrayD5Ev,comdat
	.align 2
	.weak	_ZN2sf11VertexArrayD2Ev
	.type	_ZN2sf11VertexArrayD2Ev, @function
_ZN2sf11VertexArrayD2Ev:
.LFB4209:
	.file 9 "/usr/include/SFML/Graphics/VertexArray.hpp"
	.loc 9 45 52
	.cfi_startproc
	endbr64
	pushq	%rbp
	.cfi_def_cfa_offset 16
	.cfi_offset 6, -16
	movq	%rsp, %rbp
	.cfi_def_cfa_register 6
	subq	$16, %rsp
	movq	%rdi, -8(%rbp)
.LBB142:
	.loc 9 45 52
	leaq	16+_ZTVN2sf11VertexArrayE(%rip), %rdx
	movq	-8(%rbp), %rax
	movq	%rdx, (%rax)
	movq	-8(%rbp), %rax
	addq	$8, %rax
	movq	%rax, %rdi
	call	_ZNSt6vectorIN2sf6VertexESaIS1_EED1Ev
	.loc 9 45 52 is_stmt 0 discriminator 1
	movq	-8(%rbp), %rax
	movq	%rax, %rdi
	call	_ZN2sf8DrawableD2Ev
.LBE142:
	.loc 9 45 52
	nop
	leave
	.cfi_def_cfa 7, 8
	ret
	.cfi_endproc
.LFE4209:
	.size	_ZN2sf11VertexArrayD2Ev, .-_ZN2sf11VertexArrayD2Ev
	.weak	_ZN2sf11VertexArrayD1Ev
	.set	_ZN2sf11VertexArrayD1Ev,_ZN2sf11VertexArrayD2Ev
	.section	.text._ZN2sf11VertexArrayD0Ev,"axG",@progbits,_ZN2sf11VertexArrayD5Ev,comdat
	.align 2
	.weak	_ZN2sf11VertexArrayD0Ev
	.type	_ZN2sf11VertexArrayD0Ev, @function
_ZN2sf11VertexArrayD0Ev:
.LFB4211:
	.loc 9 45 52 is_stmt 1
	.cfi_startproc
	endbr64
	pushq	%rbp
	.cfi_def_cfa_offset 16
	.cfi_offset 6, -16
	movq	%rsp, %rbp
	.cfi_def_cfa_register 6
	subq	$16, %rsp
	movq	%rdi, -8(%rbp)
	.loc 9 45 52
	movq	-8(%rbp), %rax
	movq	%rax, %rdi
	call	_ZN2sf11VertexArrayD1Ev
	.loc 9 45 52 is_stmt 0 discriminator 1
	movq	-8(%rbp), %rax
	movl	$40, %esi
	movq	%rax, %rdi
	call	_ZdlPvm@PLT
	.loc 9 45 52
	leave
	.cfi_def_cfa 7, 8
	ret
	.cfi_endproc
.LFE4211:
	.size	_ZN2sf11VertexArrayD0Ev, .-_ZN2sf11VertexArrayD0Ev
	.section	.text._ZN2sf4TextD2Ev,"axG",@progbits,_ZN2sf4TextD5Ev,comdat
	.align 2
	.weak	_ZN2sf4TextD2Ev
	.type	_ZN2sf4TextD2Ev, @function
_ZN2sf4TextD2Ev:
.LFB4212:
	.file 10 "/usr/include/SFML/Graphics/Text.hpp"
	.loc 10 48 52 is_stmt 1
	.cfi_startproc
	endbr64
	pushq	%rbp
	.cfi_def_cfa_offset 16
	.cfi_offset 6, -16
	movq	%rsp, %rbp
	.cfi_def_cfa_register 6
	subq	$16, %rsp
	movq	%rdi, -8(%rbp)
.LBB143:
	.loc 10 48 52
	leaq	16+_ZTVN2sf4TextE(%rip), %rdx
	movq	-8(%rbp), %rax
	movq	%rdx, (%rax)
	leaq	56+_ZTVN2sf4TextE(%rip), %rdx
	movq	-8(%rbp), %rax
	movq	%rdx, 8(%rax)
	movq	-8(%rbp), %rax
	addq	$296, %rax
	movq	%rax, %rdi
	call	_ZN2sf11VertexArrayD1Ev
	.loc 10 48 52 is_stmt 0 discriminator 1
	movq	-8(%rbp), %rax
	addq	$256, %rax
	movq	%rax, %rdi
	call	_ZN2sf11VertexArrayD1Ev
	.loc 10 48 52 discriminator 2
	movq	-8(%rbp), %rax
	addq	$184, %rax
	movq	%rax, %rdi
	call	_ZN2sf6StringD1Ev
	.loc 10 48 52 discriminator 3
	movq	-8(%rbp), %rax
	addq	$8, %rax
	movq	%rax, %rdi
	call	_ZN2sf13TransformableD2Ev@PLT
	.loc 10 48 52 discriminator 4
	movq	-8(%rbp), %rax
	movq	%rax, %rdi
	call	_ZN2sf8DrawableD2Ev
.LBE143:
	.loc 10 48 52
	nop
	leave
	.cfi_def_cfa 7, 8
	ret
	.cfi_endproc
.LFE4212:
	.size	_ZN2sf4TextD2Ev, .-_ZN2sf4TextD2Ev
	.set	.LTHUNK2,_ZN2sf4TextD2Ev
	.weak	_ZThn8_N2sf4TextD1Ev
	.type	_ZThn8_N2sf4TextD1Ev, @function
_ZThn8_N2sf4TextD1Ev:
.LFB4948:
	.loc 10 48 52 is_stmt 1
	.cfi_startproc
	endbr64
	subq	$8, %rdi
	jmp	.LTHUNK2
	.cfi_endproc
.LFE4948:
	.size	_ZThn8_N2sf4TextD1Ev, .-_ZThn8_N2sf4TextD1Ev
	.weak	_ZN2sf4TextD1Ev
	.set	_ZN2sf4TextD1Ev,_ZN2sf4TextD2Ev
	.section	.text._ZN2sf4TextD0Ev,"axG",@progbits,_ZN2sf4TextD5Ev,comdat
	.align 2
	.weak	_ZN2sf4TextD0Ev
	.type	_ZN2sf4TextD0Ev, @function
_ZN2sf4TextD0Ev:
.LFB4214:
	.loc 10 48 52
	.cfi_startproc
	endbr64
	pushq	%rbp
	.cfi_def_cfa_offset 16
	.cfi_offset 6, -16
	movq	%rsp, %rbp
	.cfi_def_cfa_register 6
	subq	$16, %rsp
	movq	%rdi, -8(%rbp)
	.loc 10 48 52
	movq	-8(%rbp), %rax
	movq	%rax, %rdi
	call	_ZN2sf4TextD1Ev
	.loc 10 48 52 is_stmt 0 discriminator 1
	movq	-8(%rbp), %rax
	movl	$368, %esi
	movq	%rax, %rdi
	call	_ZdlPvm@PLT
	.loc 10 48 52
	leave
	.cfi_def_cfa 7, 8
	ret
	.cfi_endproc
.LFE4214:
	.size	_ZN2sf4TextD0Ev, .-_ZN2sf4TextD0Ev
	.set	.LTHUNK3,_ZN2sf4TextD0Ev
	.weak	_ZThn8_N2sf4TextD0Ev
	.type	_ZThn8_N2sf4TextD0Ev, @function
_ZThn8_N2sf4TextD0Ev:
.LFB4949:
	.loc 10 48 52 is_stmt 1
	.cfi_startproc
	endbr64
	subq	$8, %rdi
	jmp	.LTHUNK3
	.cfi_endproc
.LFE4949:
	.size	_ZThn8_N2sf4TextD0Ev, .-_ZThn8_N2sf4TextD0Ev
	.section	.rodata
.LC0:
	.string	"Beat-Up Boys"
.LC1:
	.string	"../assets/tuffy.ttf"
.LC2:
	.string	"No Font"
.LC3:
	.string	"../assets/RedBoy.png"
.LC4:
	.string	"No Image Found."
.LC5:
	.string	"../assets/BluBoy.png"
.LC6:
	.string	"../assets/YelloBoy.png"
.LC7:
	.string	"../assets/GreenBoy.png"
	.align 8
.LC11:
	.string	"\t\t\t\tBeat-Up-Boys\n\n\n\n\n\n\n\n\n\n\t\t\t\tPress A to play"
.LC12:
	.string	"CHOOSE YOUR CHARACTER"
	.text
	.globl	main
	.type	main, @function
main:
.LFB4199:
	.file 11 "main.cpp"
	.loc 11 9 12
	.cfi_startproc
	.cfi_personality 0x9b,DW.ref.__gxx_personality_v0
	.cfi_lsda 0x1b,.LLSDA4199
	endbr64
	pushq	%rbp
	.cfi_def_cfa_offset 16
	.cfi_offset 6, -16
	movq	%rsp, %rbp
	.cfi_def_cfa_register 6
	pushq	%rbx
	subq	$2904, %rsp
	.cfi_offset 3, -24
	.loc 11 9 12
	movq	%fs:40, %rax
	movq	%rax, -24(%rbp)
	xorl	%eax, %eax
	.loc 11 10 60
	leaq	-2688(%rbp), %rax
	pushq	$0
	pushq	$0
	movl	$1, %r9d
	movl	$1, %r8d
	movl	$0, %ecx
	movl	$0, %edx
	movl	$0, %esi
	movq	%rax, %rdi
	call	_ZN2sf15ContextSettingsC1Ejjjjjjb
	addq	$16, %rsp
	.loc 11 10 60 is_stmt 0 discriminator 1
	leaq	-2784(%rbp), %rax
	movq	%rax, %rdi
	call	_ZNSt6localeC1Ev@PLT
	.loc 11 10 60 discriminator 2
	leaq	-2784(%rbp), %rdx
	leaq	-928(%rbp), %rax
	leaq	.LC0(%rip), %rcx
	movq	%rcx, %rsi
	movq	%rax, %rdi
.LEHB0:
	call	_ZN2sf6StringC1EPKcRKSt6locale@PLT
.LEHE0:
	leaq	-2736(%rbp), %rax
	movl	$32, %ecx
	movl	$600, %edx
	movl	$800, %esi
	movq	%rax, %rdi
.LEHB1:
	call	_ZN2sf9VideoModeC1Ejjj@PLT
	.loc 11 10 60 discriminator 4
	leaq	-2688(%rbp), %rdi
	leaq	-928(%rbp), %rcx
	movq	-2736(%rbp), %rsi
	movl	-2728(%rbp), %edx
	leaq	-560(%rbp), %rax
	movq	%rdi, %r9
	movl	$7, %r8d
	movq	%rax, %rdi
	call	_ZN2sf12RenderWindowC1ENS_9VideoModeERKNS_6StringEjRKNS_15ContextSettingsE@PLT
.LEHE1:
	.loc 11 10 60 discriminator 6
	leaq	-928(%rbp), %rax
	movq	%rax, %rdi
	call	_ZN2sf6StringD1Ev
	.loc 11 10 60 discriminator 1
	leaq	-2784(%rbp), %rax
	movq	%rax, %rdi
	call	_ZNSt6localeD1Ev@PLT
	.loc 11 12 10 is_stmt 1
	leaq	-2608(%rbp), %rax
	movq	%rax, %rdi
.LEHB2:
	call	_ZN2sf4FontC1Ev@PLT
.LEHE2:
	leaq	-2688(%rbp), %rax
	movq	%rax, -2904(%rbp)
.LBB144:
.LBB145:
.LBB146:
.LBB147:
.LBB148:
	.file 12 "/usr/include/c++/13/bits/new_allocator.h"
	.loc 12 88 36
	nop
.LBE148:
.LBE147:
.LBE146:
	.file 13 "/usr/include/c++/13/bits/allocator.h"
	.loc 13 163 30
	nop
.LBE145:
.LBE144:
	.loc 11 13 27 discriminator 1
	leaq	-2688(%rbp), %rdx
	leaq	-928(%rbp), %rax
	leaq	.LC1(%rip), %rcx
	movq	%rcx, %rsi
	movq	%rax, %rdi
.LEHB3:
	call	_ZNSt7__cxx1112basic_stringIcSt11char_traitsIcESaIcEEC1IS3_EEPKcRKS3_
.LEHE3:
	.loc 11 13 27 is_stmt 0 discriminator 2
	leaq	-928(%rbp), %rdx
	leaq	-2608(%rbp), %rax
	movq	%rdx, %rsi
	movq	%rax, %rdi
.LEHB4:
	call	_ZN2sf4Font12loadFromFileERKNSt7__cxx1112basic_stringIcSt11char_traitsIcESaIcEEE@PLT
.LEHE4:
	.loc 11 13 9 is_stmt 1 discriminator 4
	xorl	$1, %eax
	movl	%eax, %ebx
	.loc 11 13 27 discriminator 4
	leaq	-928(%rbp), %rax
	movq	%rax, %rdi
	call	_ZNSt7__cxx1112basic_stringIcSt11char_traitsIcESaIcEED1Ev
.LBB149:
.LBB150:
	.loc 13 184 31
	nop
.LBE150:
.LBE149:
	.loc 11 13 5 discriminator 2
	testb	%bl, %bl
	je	.L29
	.loc 11 14 22
	leaq	.LC2(%rip), %rax
	movq	%rax, %rsi
	leaq	_ZSt4cerr(%rip), %rax
	movq	%rax, %rdi
.LEHB5:
	call	_ZStlsISt11char_traitsIcEERSt13basic_ostreamIcT_ES5_PKc@PLT
	.loc 11 15 15
	movl	$1, %ebx
	jmp	.L30
.L29:
	.loc 11 18 13
	leaq	-2832(%rbp), %rax
	movq	%rax, %rdi
	call	_ZN2sf7TextureC1Ev@PLT
.LEHE5:
	.loc 11 18 51 discriminator 1
	leaq	-2688(%rbp), %rax
	movq	%rax, %rdi
	call	_ZN2sf4RectIiEC1Ev
	leaq	-2736(%rbp), %rax
	movq	%rax, -2896(%rbp)
.LBB151:
.LBB152:
.LBB153:
.LBB154:
.LBB155:
	.loc 12 88 36
	nop
.LBE155:
.LBE154:
.LBE153:
	.loc 13 163 30
	nop
.LBE152:
.LBE151:
	.loc 11 18 51 discriminator 2
	leaq	-2736(%rbp), %rdx
	leaq	-928(%rbp), %rax
	leaq	.LC3(%rip), %rcx
	movq	%rcx, %rsi
	movq	%rax, %rdi
.LEHB6:
	call	_ZNSt7__cxx1112basic_stringIcSt11char_traitsIcESaIcEEC1IS3_EEPKcRKS3_
.LEHE6:
	.loc 11 18 51 is_stmt 0 discriminator 3
	leaq	-2688(%rbp), %rdx
	leaq	-928(%rbp), %rcx
	leaq	-2832(%rbp), %rax
	movq	%rcx, %rsi
	movq	%rax, %rdi
.LEHB7:
	call	_ZN2sf7Texture12loadFromFileERKNSt7__cxx1112basic_stringIcSt11char_traitsIcESaIcEEERKNS_4RectIiEE@PLT
.LEHE7:
	.loc 11 18 28 is_stmt 1 discriminator 5
	xorl	$1, %eax
	movl	%eax, %ebx
	.loc 11 18 51 discriminator 5
	leaq	-928(%rbp), %rax
	movq	%rax, %rdi
	call	_ZNSt7__cxx1112basic_stringIcSt11char_traitsIcESaIcEED1Ev
.LBB156:
.LBB157:
	.loc 13 184 31
	nop
.LBE157:
.LBE156:
	.loc 11 18 24 discriminator 2
	testb	%bl, %bl
	je	.L31
	.loc 11 18 92 discriminator 6
	leaq	.LC4(%rip), %rax
	movq	%rax, %rsi
	leaq	_ZSt4cerr(%rip), %rax
	movq	%rax, %rdi
.LEHB8:
	call	_ZStlsISt11char_traitsIcEERSt13basic_ostreamIcT_ES5_PKc@PLT
	.loc 11 18 4 discriminator 8
	movl	$1, %ebx
	.loc 11 18 4 is_stmt 0
	jmp	.L32
.L31:
	.loc 11 18 15 is_stmt 1 discriminator 7
	leaq	-2448(%rbp), %rax
	movq	%rax, %rdi
	call	_ZN2sf6SpriteC1Ev@PLT
.LEHE8:
	.loc 11 18 40 discriminator 9
	leaq	-2832(%rbp), %rcx
	leaq	-2448(%rbp), %rax
	movl	$0, %edx
	movq	%rcx, %rsi
	movq	%rax, %rdi
.LEHB9:
	call	_ZN2sf6Sprite10setTextureERKNS_7TextureEb@PLT
	.loc 11 19 13
	leaq	-2784(%rbp), %rax
	movq	%rax, %rdi
	call	_ZN2sf7TextureC1Ev@PLT
.LEHE9:
	.loc 11 19 51 discriminator 1
	leaq	-2688(%rbp), %rax
	movq	%rax, %rdi
	call	_ZN2sf4RectIiEC1Ev
	leaq	-2736(%rbp), %rax
	movq	%rax, -2888(%rbp)
.LBB158:
.LBB159:
.LBB160:
.LBB161:
.LBB162:
	.loc 12 88 36
	nop
.LBE162:
.LBE161:
.LBE160:
	.loc 13 163 30
	nop
.LBE159:
.LBE158:
	.loc 11 19 51 discriminator 2
	leaq	-2736(%rbp), %rdx
	leaq	-928(%rbp), %rax
	leaq	.LC5(%rip), %rcx
	movq	%rcx, %rsi
	movq	%rax, %rdi
.LEHB10:
	call	_ZNSt7__cxx1112basic_stringIcSt11char_traitsIcESaIcEEC1IS3_EEPKcRKS3_
.LEHE10:
	.loc 11 19 51 is_stmt 0 discriminator 3
	leaq	-2688(%rbp), %rdx
	leaq	-928(%rbp), %rcx
	leaq	-2784(%rbp), %rax
	movq	%rcx, %rsi
	movq	%rax, %rdi
.LEHB11:
	call	_ZN2sf7Texture12loadFromFileERKNSt7__cxx1112basic_stringIcSt11char_traitsIcESaIcEEERKNS_4RectIiEE@PLT
.LEHE11:
	.loc 11 19 28 is_stmt 1 discriminator 5
	xorl	$1, %eax
	movl	%eax, %ebx
	.loc 11 19 51 discriminator 5
	leaq	-928(%rbp), %rax
	movq	%rax, %rdi
	call	_ZNSt7__cxx1112basic_stringIcSt11char_traitsIcESaIcEED1Ev
.LBB163:
.LBB164:
	.loc 13 184 31
	nop
.LBE164:
.LBE163:
	.loc 11 19 24 discriminator 2
	testb	%bl, %bl
	je	.L33
	.loc 11 19 92 discriminator 6
	leaq	.LC4(%rip), %rax
	movq	%rax, %rsi
	leaq	_ZSt4cerr(%rip), %rax
	movq	%rax, %rdi
.LEHB12:
	call	_ZStlsISt11char_traitsIcEERSt13basic_ostreamIcT_ES5_PKc@PLT
	.loc 11 19 4 discriminator 8
	movl	$1, %ebx
	.loc 11 19 4 is_stmt 0
	jmp	.L34
.L33:
	.loc 11 19 15 is_stmt 1 discriminator 7
	leaq	-2160(%rbp), %rax
	movq	%rax, %rdi
	call	_ZN2sf6SpriteC1Ev@PLT
.LEHE12:
	.loc 11 19 40 discriminator 9
	leaq	-2784(%rbp), %rcx
	leaq	-2160(%rbp), %rax
	movl	$0, %edx
	movq	%rcx, %rsi
	movq	%rax, %rdi
.LEHB13:
	call	_ZN2sf6Sprite10setTextureERKNS_7TextureEb@PLT
	.loc 11 20 13
	leaq	-2736(%rbp), %rax
	movq	%rax, %rdi
	call	_ZN2sf7TextureC1Ev@PLT
.LEHE13:
	.loc 11 20 55 discriminator 1
	leaq	-2688(%rbp), %rax
	movq	%rax, %rdi
	call	_ZN2sf4RectIiEC1Ev
	leaq	-2864(%rbp), %rax
	movq	%rax, -2880(%rbp)
.LBB165:
.LBB166:
.LBB167:
.LBB168:
.LBB169:
	.loc 12 88 36
	nop
.LBE169:
.LBE168:
.LBE167:
	.loc 13 163 30
	nop
.LBE166:
.LBE165:
	.loc 11 20 55 discriminator 2
	leaq	-2864(%rbp), %rdx
	leaq	-928(%rbp), %rax
	leaq	.LC6(%rip), %rcx
	movq	%rcx, %rsi
	movq	%rax, %rdi
.LEHB14:
	call	_ZNSt7__cxx1112basic_stringIcSt11char_traitsIcESaIcEEC1IS3_EEPKcRKS3_
.LEHE14:
	.loc 11 20 55 is_stmt 0 discriminator 3
	leaq	-2688(%rbp), %rdx
	leaq	-928(%rbp), %rcx
	leaq	-2736(%rbp), %rax
	movq	%rcx, %rsi
	movq	%rax, %rdi
.LEHB15:
	call	_ZN2sf7Texture12loadFromFileERKNSt7__cxx1112basic_stringIcSt11char_traitsIcESaIcEEERKNS_4RectIiEE@PLT
.LEHE15:
	.loc 11 20 30 is_stmt 1 discriminator 5
	xorl	$1, %eax
	movl	%eax, %ebx
	.loc 11 20 55 discriminator 5
	leaq	-928(%rbp), %rax
	movq	%rax, %rdi
	call	_ZNSt7__cxx1112basic_stringIcSt11char_traitsIcESaIcEED1Ev
.LBB170:
.LBB171:
	.loc 13 184 31
	nop
.LBE171:
.LBE170:
	.loc 11 20 26 discriminator 2
	testb	%bl, %bl
	je	.L35
	.loc 11 20 98 discriminator 6
	leaq	.LC4(%rip), %rax
	movq	%rax, %rsi
	leaq	_ZSt4cerr(%rip), %rax
	movq	%rax, %rdi
.LEHB16:
	call	_ZStlsISt11char_traitsIcEERSt13basic_ostreamIcT_ES5_PKc@PLT
	.loc 11 20 4 discriminator 8
	movl	$1, %ebx
	.loc 11 20 4 is_stmt 0
	jmp	.L36
.L35:
	.loc 11 20 15 is_stmt 1 discriminator 7
	leaq	-1872(%rbp), %rax
	movq	%rax, %rdi
	call	_ZN2sf6SpriteC1Ev@PLT
.LEHE16:
	.loc 11 20 44 discriminator 9
	leaq	-2736(%rbp), %rcx
	leaq	-1872(%rbp), %rax
	movl	$0, %edx
	movq	%rcx, %rsi
	movq	%rax, %rdi
.LEHB17:
	call	_ZN2sf6Sprite10setTextureERKNS_7TextureEb@PLT
	.loc 11 21 13
	leaq	-2688(%rbp), %rax
	movq	%rax, %rdi
	call	_ZN2sf7TextureC1Ev@PLT
.LEHE17:
	.loc 11 21 55 discriminator 1
	leaq	-2864(%rbp), %rax
	movq	%rax, %rdi
	call	_ZN2sf4RectIiEC1Ev
	leaq	-2908(%rbp), %rax
	movq	%rax, -2872(%rbp)
.LBB172:
.LBB173:
.LBB174:
.LBB175:
.LBB176:
	.loc 12 88 36
	nop
.LBE176:
.LBE175:
.LBE174:
	.loc 13 163 30
	nop
.LBE173:
.LBE172:
	.loc 11 21 55 discriminator 2
	leaq	-2908(%rbp), %rdx
	leaq	-928(%rbp), %rax
	leaq	.LC7(%rip), %rcx
	movq	%rcx, %rsi
	movq	%rax, %rdi
.LEHB18:
	call	_ZNSt7__cxx1112basic_stringIcSt11char_traitsIcESaIcEEC1IS3_EEPKcRKS3_
.LEHE18:
	.loc 11 21 55 is_stmt 0 discriminator 3
	leaq	-2864(%rbp), %rdx
	leaq	-928(%rbp), %rcx
	leaq	-2688(%rbp), %rax
	movq	%rcx, %rsi
	movq	%rax, %rdi
.LEHB19:
	call	_ZN2sf7Texture12loadFromFileERKNSt7__cxx1112basic_stringIcSt11char_traitsIcESaIcEEERKNS_4RectIiEE@PLT
.LEHE19:
	.loc 11 21 30 is_stmt 1 discriminator 5
	xorl	$1, %eax
	movl	%eax, %ebx
	.loc 11 21 55 discriminator 5
	leaq	-928(%rbp), %rax
	movq	%rax, %rdi
	call	_ZNSt7__cxx1112basic_stringIcSt11char_traitsIcESaIcEED1Ev
.LBB177:
.LBB178:
	.loc 13 184 31
	nop
.LBE178:
.LBE177:
	.loc 11 21 26 discriminator 2
	testb	%bl, %bl
	je	.L37
	.loc 11 21 98 discriminator 6
	leaq	.LC4(%rip), %rax
	movq	%rax, %rsi
	leaq	_ZSt4cerr(%rip), %rax
	movq	%rax, %rdi
.LEHB20:
	call	_ZStlsISt11char_traitsIcEERSt13basic_ostreamIcT_ES5_PKc@PLT
	.loc 11 21 4 discriminator 8
	movl	$1, %ebx
	.loc 11 21 4 is_stmt 0
	jmp	.L38
.L37:
	.loc 11 21 15 is_stmt 1 discriminator 7
	leaq	-1584(%rbp), %rax
	movq	%rax, %rdi
	call	_ZN2sf6SpriteC1Ev@PLT
.LEHE20:
	.loc 11 21 44 discriminator 9
	leaq	-2688(%rbp), %rcx
	leaq	-1584(%rbp), %rax
	movl	$0, %edx
	movq	%rcx, %rsi
	movq	%rax, %rdi
.LEHB21:
	call	_ZN2sf6Sprite10setTextureERKNS_7TextureEb@PLT
	.loc 11 22 23
	leaq	-2864(%rbp), %rax
	movss	.LC8(%rip), %xmm1
	movl	.LC8(%rip), %edx
	movd	%edx, %xmm0
	movq	%rax, %rdi
	call	_ZN2sf7Vector2IfEC1Eff
	.loc 11 22 23 is_stmt 0 discriminator 1
	leaq	-2864(%rbp), %rax
	leaq	-2448(%rbp), %rdx
	addq	$8, %rdx
	movq	%rax, %rsi
	movq	%rdx, %rdi
	call	_ZN2sf13Transformable11setPositionERKNS_7Vector2IfEE@PLT
	.loc 11 23 20 is_stmt 1
	leaq	-2864(%rbp), %rax
	movss	.LC9(%rip), %xmm1
	movl	.LC9(%rip), %edx
	movd	%edx, %xmm0
	movq	%rax, %rdi
	call	_ZN2sf7Vector2IfEC1Eff
	.loc 11 23 20 is_stmt 0 discriminator 1
	leaq	-2864(%rbp), %rax
	leaq	-2448(%rbp), %rdx
	addq	$8, %rdx
	movq	%rax, %rsi
	movq	%rdx, %rdi
	call	_ZN2sf13Transformable8setScaleERKNS_7Vector2IfEE@PLT
	.loc 11 24 23 is_stmt 1
	leaq	-2864(%rbp), %rax
	movss	.LC10(%rip), %xmm1
	movl	.LC8(%rip), %edx
	movd	%edx, %xmm0
	movq	%rax, %rdi
	call	_ZN2sf7Vector2IfEC1Eff
	.loc 11 24 23 is_stmt 0 discriminator 1
	leaq	-2864(%rbp), %rax
	leaq	-2160(%rbp), %rdx
	addq	$8, %rdx
	movq	%rax, %rsi
	movq	%rdx, %rdi
	call	_ZN2sf13Transformable11setPositionERKNS_7Vector2IfEE@PLT
	.loc 11 25 20 is_stmt 1
	leaq	-2864(%rbp), %rax
	movss	.LC9(%rip), %xmm1
	movl	.LC9(%rip), %edx
	movd	%edx, %xmm0
	movq	%rax, %rdi
	call	_ZN2sf7Vector2IfEC1Eff
	.loc 11 25 20 is_stmt 0 discriminator 1
	leaq	-2864(%rbp), %rax
	leaq	-2160(%rbp), %rdx
	addq	$8, %rdx
	movq	%rax, %rsi
	movq	%rdx, %rdi
	call	_ZN2sf13Transformable8setScaleERKNS_7Vector2IfEE@PLT
.LEHE21:
	.loc 11 27 11 is_stmt 1
	movl	_ZN2sf5Color4BlueE(%rip), %eax
	movl	%eax, -2908(%rbp)
	.loc 11 29 11
	movl	$0, -2912(%rbp)
	.loc 11 33 97
	leaq	-2864(%rbp), %rax
	movq	%rax, %rdi
	call	_ZNSt6localeC1Ev@PLT
	.loc 11 33 97 is_stmt 0 discriminator 1
	leaq	-2864(%rbp), %rdx
	leaq	-928(%rbp), %rax
	leaq	.LC11(%rip), %rcx
	movq	%rcx, %rsi
	movq	%rax, %rdi
.LEHB22:
	call	_ZN2sf6StringC1EPKcRKSt6locale@PLT
.LEHE22:
	.loc 11 33 97 discriminator 2
	leaq	-2608(%rbp), %rdx
	leaq	-928(%rbp), %rsi
	leaq	-1296(%rbp), %rax
	movl	$30, %ecx
	movq	%rax, %rdi
.LEHB23:
	call	_ZN2sf4TextC1ERKNS_6StringERKNS_4FontEj@PLT
.LEHE23:
	.loc 11 33 97 discriminator 4
	leaq	-928(%rbp), %rax
	movq	%rax, %rdi
	call	_ZN2sf6StringD1Ev
	.loc 11 33 97 discriminator 1
	leaq	-2864(%rbp), %rax
	movq	%rax, %rdi
	call	_ZNSt6localeD1Ev@PLT
	.loc 11 34 25 is_stmt 1
	leaq	-1296(%rbp), %rax
	movl	$1, %esi
	movq	%rax, %rdi
.LEHB24:
	call	_ZN2sf4Text8setStyleEj@PLT
	.loc 11 35 29
	leaq	-1296(%rbp), %rax
	leaq	_ZN2sf5Color5WhiteE(%rip), %rdx
	movq	%rdx, %rsi
	movq	%rax, %rdi
	call	_ZN2sf4Text12setFillColorERKNS_5ColorE@PLT
.LEHE24:
	.loc 11 37 52
	leaq	-2864(%rbp), %rax
	movq	%rax, %rdi
	call	_ZNSt6localeC1Ev@PLT
	.loc 11 37 52 is_stmt 0 discriminator 1
	leaq	-2864(%rbp), %rdx
	leaq	-2640(%rbp), %rax
	leaq	.LC12(%rip), %rcx
	movq	%rcx, %rsi
	movq	%rax, %rdi
.LEHB25:
	call	_ZN2sf6StringC1EPKcRKSt6locale@PLT
.LEHE25:
	.loc 11 37 52 discriminator 2
	leaq	-2608(%rbp), %rdx
	leaq	-2640(%rbp), %rsi
	leaq	-928(%rbp), %rax
	movl	$30, %ecx
	movq	%rax, %rdi
.LEHB26:
	call	_ZN2sf4TextC1ERKNS_6StringERKNS_4FontEj@PLT
.LEHE26:
	.loc 11 37 52 discriminator 4
	leaq	-2640(%rbp), %rax
	movq	%rax, %rdi
	call	_ZN2sf6StringD1Ev
	.loc 11 37 52 discriminator 1
	leaq	-2864(%rbp), %rax
	movq	%rax, %rdi
	call	_ZNSt6localeD1Ev@PLT
	.loc 11 38 26 is_stmt 1
	leaq	-928(%rbp), %rax
	leaq	_ZN2sf5Color3RedE(%rip), %rdx
	movq	%rdx, %rsi
	movq	%rax, %rdi
.LEHB27:
	call	_ZN2sf4Text12setFillColorERKNS_5ColorE@PLT
	.loc 11 40 5
	jmp	.L39
.L42:
.LBB179:
	.loc 11 43 23
	movl	-2864(%rbp), %eax
	.loc 11 43 13
	testl	%eax, %eax
	jne	.L41
	.loc 11 44 29
	leaq	-560(%rbp), %rax
	movq	%rax, %rdi
	call	_ZN2sf6Window5closeEv@PLT
.L41:
	.loc 11 42 32
	leaq	-2864(%rbp), %rdx
	leaq	-560(%rbp), %rax
	movq	%rdx, %rsi
	movq	%rax, %rdi
	call	_ZN2sf10WindowBase9pollEventERNS_5EventE@PLT
	.loc 11 42 32 is_stmt 0 discriminator 1
	testb	%al, %al
	jne	.L42
	.loc 11 49 35 is_stmt 1
	movl	$36, %edi
	call	_ZN2sf8Keyboard12isKeyPressedENS0_3KeyE@PLT
	.loc 11 49 9 discriminator 1
	testb	%al, %al
	je	.L43
	.loc 11 50 25
	leaq	-560(%rbp), %rax
	movq	%rax, %rdi
	call	_ZN2sf6Window5closeEv@PLT
.L43:
	.loc 11 53 35
	cmpl	$0, -2912(%rbp)
	jne	.L44
	.loc 11 53 60 discriminator 1
	movl	$0, %edi
	call	_ZN2sf8Keyboard12isKeyPressedENS0_3KeyE@PLT
	.loc 11 53 35 discriminator 3
	testb	%al, %al
	je	.L44
	.loc 11 53 35 is_stmt 0 discriminator 4
	movl	$1, %eax
	.loc 11 53 35
	jmp	.L45
.L44:
	.loc 11 53 35 discriminator 5
	movl	$0, %eax
.L45:
	.loc 11 53 9 is_stmt 1 discriminator 7
	testb	%al, %al
	je	.L46
	.loc 11 54 26
	movl	$1, -2912(%rbp)
.L46:
	.loc 11 57 21
	leaq	-2908(%rbp), %rax
	leaq	-560(%rbp), %rdx
	addq	$48, %rdx
	movq	%rax, %rsi
	movq	%rdx, %rdi
	call	_ZN2sf12RenderTarget5clearERKNS_5ColorE@PLT
	.loc 11 57 39 discriminator 1
	cmpl	$0, -2912(%rbp)
	jne	.L47
	.loc 11 57 79 discriminator 2
	leaq	-1296(%rbp), %rax
	leaq	-560(%rbp), %rdx
	leaq	48(%rdx), %rcx
	leaq	_ZN2sf12RenderStates7DefaultE(%rip), %rdx
	movq	%rax, %rsi
	movq	%rcx, %rdi
	call	_ZN2sf12RenderTarget4drawERKNS_8DrawableERKNS_12RenderStatesE@PLT
	.loc 11 57 109 discriminator 4
	movl	_ZN2sf5Color4BlueE(%rip), %eax
	movl	%eax, -2908(%rbp)
	jmp	.L39
.L47:
	.loc 11 57 131 discriminator 3
	cmpl	$1, -2912(%rbp)
	jne	.L39
	.loc 11 57 176 discriminator 5
	leaq	-928(%rbp), %rax
	leaq	-560(%rbp), %rdx
	leaq	48(%rdx), %rcx
	leaq	_ZN2sf12RenderStates7DefaultE(%rip), %rdx
	movq	%rax, %rsi
	movq	%rcx, %rdi
	call	_ZN2sf12RenderTarget4drawERKNS_8DrawableERKNS_12RenderStatesE@PLT
	.loc 11 57 199 discriminator 6
	leaq	-2448(%rbp), %rax
	leaq	-560(%rbp), %rdx
	leaq	48(%rdx), %rcx
	leaq	_ZN2sf12RenderStates7DefaultE(%rip), %rdx
	movq	%rax, %rsi
	movq	%rcx, %rdi
	call	_ZN2sf12RenderTarget4drawERKNS_8DrawableERKNS_12RenderStatesE@PLT
	.loc 11 57 220 discriminator 7
	leaq	-2160(%rbp), %rax
	leaq	-560(%rbp), %rdx
	leaq	48(%rdx), %rcx
	leaq	_ZN2sf12RenderStates7DefaultE(%rip), %rdx
	movq	%rax, %rsi
	movq	%rcx, %rdi
	call	_ZN2sf12RenderTarget4drawERKNS_8DrawableERKNS_12RenderStatesE@PLT
	.loc 11 57 245 discriminator 8
	movl	_ZN2sf5Color5BlackE(%rip), %eax
	movl	%eax, -2908(%rbp)
.L39:
.LBE179:
	.loc 11 40 25
	leaq	-560(%rbp), %rax
	movq	%rax, %rdi
	call	_ZNK2sf10WindowBase6isOpenEv@PLT
	.loc 11 40 25 is_stmt 0 discriminator 1
	testb	%al, %al
	jne	.L41
	.loc 11 59 23 is_stmt 1
	leaq	-560(%rbp), %rax
	movq	%rax, %rdi
	call	_ZN2sf6Window7displayEv@PLT
.LEHE27:
	.loc 11 60 12
	movl	$0, %ebx
	.loc 11 61 1
	leaq	-928(%rbp), %rax
	movq	%rax, %rdi
	call	_ZN2sf4TextD1Ev
	.loc 11 61 1 is_stmt 0 discriminator 1
	leaq	-1296(%rbp), %rax
	movq	%rax, %rdi
	call	_ZN2sf4TextD1Ev
	.loc 11 61 1 discriminator 2
	leaq	-1584(%rbp), %rax
	movq	%rax, %rdi
	call	_ZN2sf6SpriteD1Ev
.L38:
	.loc 11 61 1 discriminator 3
	leaq	-2688(%rbp), %rax
	movq	%rax, %rdi
	call	_ZN2sf7TextureD1Ev@PLT
	.loc 11 61 1 discriminator 4
	leaq	-1872(%rbp), %rax
	movq	%rax, %rdi
	call	_ZN2sf6SpriteD1Ev
.L36:
	.loc 11 61 1 discriminator 5
	leaq	-2736(%rbp), %rax
	movq	%rax, %rdi
	call	_ZN2sf7TextureD1Ev@PLT
	.loc 11 61 1 discriminator 6
	leaq	-2160(%rbp), %rax
	movq	%rax, %rdi
	call	_ZN2sf6SpriteD1Ev
.L34:
	.loc 11 61 1 discriminator 7
	leaq	-2784(%rbp), %rax
	movq	%rax, %rdi
	call	_ZN2sf7TextureD1Ev@PLT
	.loc 11 61 1 discriminator 8
	leaq	-2448(%rbp), %rax
	movq	%rax, %rdi
	call	_ZN2sf6SpriteD1Ev
.L32:
	.loc 11 61 1 discriminator 9
	leaq	-2832(%rbp), %rax
	movq	%rax, %rdi
	call	_ZN2sf7TextureD1Ev@PLT
.L30:
	.loc 11 61 1 discriminator 10
	leaq	-2608(%rbp), %rax
	movq	%rax, %rdi
	call	_ZN2sf4FontD1Ev@PLT
	.loc 11 61 1 discriminator 11
	leaq	-560(%rbp), %rax
	movq	%rax, %rdi
	call	_ZN2sf12RenderWindowD1Ev@PLT
	.loc 11 61 1
	movl	%ebx, %eax
	movq	-24(%rbp), %rdx
	subq	%fs:40, %rdx
	je	.L81
	jmp	.L115
.L83:
	endbr64
	.loc 11 10 60 is_stmt 1
	movq	%rax, %rbx
	leaq	-928(%rbp), %rax
	movq	%rax, %rdi
	call	_ZN2sf6StringD1Ev
	jmp	.L52
.L82:
	endbr64
	.loc 11 10 60 is_stmt 0 discriminator 1
	movq	%rax, %rbx
.L52:
	leaq	-2784(%rbp), %rax
	movq	%rax, %rdi
	call	_ZNSt6localeD1Ev@PLT
	movq	%rbx, %rax
	movq	-24(%rbp), %rdx
	subq	%fs:40, %rdx
	je	.L53
	call	__stack_chk_fail@PLT
.L53:
	movq	%rax, %rdi
.LEHB28:
	call	_Unwind_Resume@PLT
.L86:
	endbr64
	.loc 11 13 27 is_stmt 1 discriminator 3
	movq	%rax, %rbx
	leaq	-928(%rbp), %rax
	movq	%rax, %rdi
	call	_ZNSt7__cxx1112basic_stringIcSt11char_traitsIcESaIcEED1Ev
	movq	%rbx, %rax
.LBB180:
.LBB181:
	.loc 13 184 31
	jmp	.L116
.L85:
	endbr64
.L116:
	nop
	movq	%rax, %rbx
	jmp	.L56
.L89:
	endbr64
.LBE181:
.LBE180:
	.loc 11 18 51 discriminator 4
	movq	%rax, %rbx
	leaq	-928(%rbp), %rax
	movq	%rax, %rdi
	call	_ZNSt7__cxx1112basic_stringIcSt11char_traitsIcESaIcEED1Ev
	movq	%rbx, %rax
.LBB182:
.LBB183:
	.loc 13 184 31
	jmp	.L117
.L88:
	endbr64
.L117:
	nop
	movq	%rax, %rbx
	jmp	.L59
.L93:
	endbr64
.LBE183:
.LBE182:
	.loc 11 19 51 discriminator 4
	movq	%rax, %rbx
	leaq	-928(%rbp), %rax
	movq	%rax, %rdi
	call	_ZNSt7__cxx1112basic_stringIcSt11char_traitsIcESaIcEED1Ev
	movq	%rbx, %rax
.LBB184:
.LBB185:
	.loc 13 184 31
	jmp	.L118
.L92:
	endbr64
.L118:
	nop
	movq	%rax, %rbx
	jmp	.L62
.L97:
	endbr64
.LBE185:
.LBE184:
	.loc 11 20 55 discriminator 4
	movq	%rax, %rbx
	leaq	-928(%rbp), %rax
	movq	%rax, %rdi
	call	_ZNSt7__cxx1112basic_stringIcSt11char_traitsIcESaIcEED1Ev
	movq	%rbx, %rax
.LBB186:
.LBB187:
	.loc 13 184 31
	jmp	.L119
.L96:
	endbr64
.L119:
	nop
	movq	%rax, %rbx
	jmp	.L65
.L101:
	endbr64
.LBE187:
.LBE186:
	.loc 11 21 55 discriminator 4
	movq	%rax, %rbx
	leaq	-928(%rbp), %rax
	movq	%rax, %rdi
	call	_ZNSt7__cxx1112basic_stringIcSt11char_traitsIcESaIcEED1Ev
	movq	%rbx, %rax
.LBB188:
.LBB189:
	.loc 13 184 31
	jmp	.L120
.L100:
	endbr64
.L120:
	nop
	movq	%rax, %rbx
	jmp	.L68
.L105:
	endbr64
.LBE189:
.LBE188:
	.loc 11 33 97 discriminator 3
	movq	%rax, %rbx
	leaq	-928(%rbp), %rax
	movq	%rax, %rdi
	call	_ZN2sf6StringD1Ev
	jmp	.L70
.L104:
	endbr64
	.loc 11 33 97 is_stmt 0 discriminator 1
	movq	%rax, %rbx
.L70:
	leaq	-2864(%rbp), %rax
	movq	%rax, %rdi
	call	_ZNSt6localeD1Ev@PLT
	jmp	.L71
.L108:
	endbr64
	.loc 11 37 52 is_stmt 1 discriminator 3
	movq	%rax, %rbx
	leaq	-2640(%rbp), %rax
	movq	%rax, %rdi
	call	_ZN2sf6StringD1Ev
	jmp	.L73
.L107:
	endbr64
	.loc 11 37 52 is_stmt 0 discriminator 1
	movq	%rax, %rbx
.L73:
	leaq	-2864(%rbp), %rax
	movq	%rax, %rdi
	call	_ZNSt6localeD1Ev@PLT
	jmp	.L74
.L109:
	endbr64
	.loc 11 61 1 is_stmt 1
	movq	%rax, %rbx
	leaq	-928(%rbp), %rax
	movq	%rax, %rdi
	call	_ZN2sf4TextD1Ev
	jmp	.L74
.L106:
	endbr64
	movq	%rax, %rbx
.L74:
	leaq	-1296(%rbp), %rax
	movq	%rax, %rdi
	call	_ZN2sf4TextD1Ev
	jmp	.L71
.L103:
	endbr64
	movq	%rax, %rbx
.L71:
	leaq	-1584(%rbp), %rax
	movq	%rax, %rdi
	call	_ZN2sf6SpriteD1Ev
	jmp	.L68
.L102:
	endbr64
	movq	%rax, %rbx
.L68:
	leaq	-2688(%rbp), %rax
	movq	%rax, %rdi
	call	_ZN2sf7TextureD1Ev@PLT
	jmp	.L76
.L99:
	endbr64
	movq	%rax, %rbx
.L76:
	leaq	-1872(%rbp), %rax
	movq	%rax, %rdi
	call	_ZN2sf6SpriteD1Ev
	jmp	.L65
.L98:
	endbr64
	movq	%rax, %rbx
.L65:
	leaq	-2736(%rbp), %rax
	movq	%rax, %rdi
	call	_ZN2sf7TextureD1Ev@PLT
	jmp	.L77
.L95:
	endbr64
	movq	%rax, %rbx
.L77:
	leaq	-2160(%rbp), %rax
	movq	%rax, %rdi
	call	_ZN2sf6SpriteD1Ev
	jmp	.L62
.L94:
	endbr64
	movq	%rax, %rbx
.L62:
	leaq	-2784(%rbp), %rax
	movq	%rax, %rdi
	call	_ZN2sf7TextureD1Ev@PLT
	jmp	.L78
.L91:
	endbr64
	movq	%rax, %rbx
.L78:
	leaq	-2448(%rbp), %rax
	movq	%rax, %rdi
	call	_ZN2sf6SpriteD1Ev
	jmp	.L59
.L90:
	endbr64
	movq	%rax, %rbx
.L59:
	leaq	-2832(%rbp), %rax
	movq	%rax, %rdi
	call	_ZN2sf7TextureD1Ev@PLT
	jmp	.L56
.L87:
	endbr64
	movq	%rax, %rbx
.L56:
	leaq	-2608(%rbp), %rax
	movq	%rax, %rdi
	call	_ZN2sf4FontD1Ev@PLT
	jmp	.L79
.L84:
	endbr64
	movq	%rax, %rbx
.L79:
	leaq	-560(%rbp), %rax
	movq	%rax, %rdi
	call	_ZN2sf12RenderWindowD1Ev@PLT
	movq	%rbx, %rax
	movq	-24(%rbp), %rdx
	subq	%fs:40, %rdx
	je	.L80
	call	__stack_chk_fail@PLT
.L80:
	movq	%rax, %rdi
	call	_Unwind_Resume@PLT
.LEHE28:
.L115:
	call	__stack_chk_fail@PLT
.L81:
	movq	-8(%rbp), %rbx
	leave
	.cfi_def_cfa 7, 8
	ret
	.cfi_endproc
.LFE4199:
	.globl	__gxx_personality_v0
	.section	.gcc_except_table,"a",@progbits
.LLSDA4199:
	.byte	0xff
	.byte	0xff
	.byte	0x1
	.uleb128 .LLSDACSE4199-.LLSDACSB4199
.LLSDACSB4199:
	.uleb128 .LEHB0-.LFB4199
	.uleb128 .LEHE0-.LEHB0
	.uleb128 .L82-.LFB4199
	.uleb128 0
	.uleb128 .LEHB1-.LFB4199
	.uleb128 .LEHE1-.LEHB1
	.uleb128 .L83-.LFB4199
	.uleb128 0
	.uleb128 .LEHB2-.LFB4199
	.uleb128 .LEHE2-.LEHB2
	.uleb128 .L84-.LFB4199
	.uleb128 0
	.uleb128 .LEHB3-.LFB4199
	.uleb128 .LEHE3-.LEHB3
	.uleb128 .L85-.LFB4199
	.uleb128 0
	.uleb128 .LEHB4-.LFB4199
	.uleb128 .LEHE4-.LEHB4
	.uleb128 .L86-.LFB4199
	.uleb128 0
	.uleb128 .LEHB5-.LFB4199
	.uleb128 .LEHE5-.LEHB5
	.uleb128 .L87-.LFB4199
	.uleb128 0
	.uleb128 .LEHB6-.LFB4199
	.uleb128 .LEHE6-.LEHB6
	.uleb128 .L88-.LFB4199
	.uleb128 0
	.uleb128 .LEHB7-.LFB4199
	.uleb128 .LEHE7-.LEHB7
	.uleb128 .L89-.LFB4199
	.uleb128 0
	.uleb128 .LEHB8-.LFB4199
	.uleb128 .LEHE8-.LEHB8
	.uleb128 .L90-.LFB4199
	.uleb128 0
	.uleb128 .LEHB9-.LFB4199
	.uleb128 .LEHE9-.LEHB9
	.uleb128 .L91-.LFB4199
	.uleb128 0
	.uleb128 .LEHB10-.LFB4199
	.uleb128 .LEHE10-.LEHB10
	.uleb128 .L92-.LFB4199
	.uleb128 0
	.uleb128 .LEHB11-.LFB4199
	.uleb128 .LEHE11-.LEHB11
	.uleb128 .L93-.LFB4199
	.uleb128 0
	.uleb128 .LEHB12-.LFB4199
	.uleb128 .LEHE12-.LEHB12
	.uleb128 .L94-.LFB4199
	.uleb128 0
	.uleb128 .LEHB13-.LFB4199
	.uleb128 .LEHE13-.LEHB13
	.uleb128 .L95-.LFB4199
	.uleb128 0
	.uleb128 .LEHB14-.LFB4199
	.uleb128 .LEHE14-.LEHB14
	.uleb128 .L96-.LFB4199
	.uleb128 0
	.uleb128 .LEHB15-.LFB4199
	.uleb128 .LEHE15-.LEHB15
	.uleb128 .L97-.LFB4199
	.uleb128 0
	.uleb128 .LEHB16-.LFB4199
	.uleb128 .LEHE16-.LEHB16
	.uleb128 .L98-.LFB4199
	.uleb128 0
	.uleb128 .LEHB17-.LFB4199
	.uleb128 .LEHE17-.LEHB17
	.uleb128 .L99-.LFB4199
	.uleb128 0
	.uleb128 .LEHB18-.LFB4199
	.uleb128 .LEHE18-.LEHB18
	.uleb128 .L100-.LFB4199
	.uleb128 0
	.uleb128 .LEHB19-.LFB4199
	.uleb128 .LEHE19-.LEHB19
	.uleb128 .L101-.LFB4199
	.uleb128 0
	.uleb128 .LEHB20-.LFB4199
	.uleb128 .LEHE20-.LEHB20
	.uleb128 .L102-.LFB4199
	.uleb128 0
	.uleb128 .LEHB21-.LFB4199
	.uleb128 .LEHE21-.LEHB21
	.uleb128 .L103-.LFB4199
	.uleb128 0
	.uleb128 .LEHB22-.LFB4199
	.uleb128 .LEHE22-.LEHB22
	.uleb128 .L104-.LFB4199
	.uleb128 0
	.uleb128 .LEHB23-.LFB4199
	.uleb128 .LEHE23-.LEHB23
	.uleb128 .L105-.LFB4199
	.uleb128 0
	.uleb128 .LEHB24-.LFB4199
	.uleb128 .LEHE24-.LEHB24
	.uleb128 .L106-.LFB4199
	.uleb128 0
	.uleb128 .LEHB25-.LFB4199
	.uleb128 .LEHE25-.LEHB25
	.uleb128 .L107-.LFB4199
	.uleb128 0
	.uleb128 .LEHB26-.LFB4199
	.uleb128 .LEHE26-.LEHB26
	.uleb128 .L108-.LFB4199
	.uleb128 0
	.uleb128 .LEHB27-.LFB4199
	.uleb128 .LEHE27-.LEHB27
	.uleb128 .L109-.LFB4199
	.uleb128 0
	.uleb128 .LEHB28-.LFB4199
	.uleb128 .LEHE28-.LEHB28
	.uleb128 0
	.uleb128 0
.LLSDACSE4199:
	.text
	.size	main, .-main
	.section	.text._ZSt12construct_atIcJRKcEEDTgsnwcvPvLi0E_T_pispcl7declvalIT0_EEEEPS3_DpOS4_,"axG",@progbits,_ZSt12construct_atIcJRKcEEDTgsnwcvPvLi0E_T_pispcl7declvalIT0_EEEEPS3_DpOS4_,comdat
	.weak	_ZSt12construct_atIcJRKcEEDTgsnwcvPvLi0E_T_pispcl7declvalIT0_EEEEPS3_DpOS4_
	.type	_ZSt12construct_atIcJRKcEEDTgsnwcvPvLi0E_T_pispcl7declvalIT0_EEEEPS3_DpOS4_, @function
_ZSt12construct_atIcJRKcEEDTgsnwcvPvLi0E_T_pispcl7declvalIT0_EEEEPS3_DpOS4_:
.LFB4215:
	.file 14 "/usr/include/c++/13/bits/stl_construct.h"
	.loc 14 94 5
	.cfi_startproc
	endbr64
	pushq	%rbp
	.cfi_def_cfa_offset 16
	.cfi_offset 6, -16
	movq	%rsp, %rbp
	.cfi_def_cfa_register 6
	pushq	%rbx
	subq	$24, %rsp
	.cfi_offset 3, -24
	movq	%rdi, -24(%rbp)
	movq	%rsi, -32(%rbp)
	.loc 14 97 20
	movq	-24(%rbp), %rax
	.loc 14 97 14
	movq	%rax, %rsi
	movl	$1, %edi
	call	_ZnwmPv
	movq	%rax, %rbx
	.loc 14 97 62 discriminator 1
	movq	-32(%rbp), %rax
	movq	%rax, %rdi
	call	_ZSt7forwardIRKcEOT_RNSt16remove_referenceIS2_E4typeE
	.loc 14 97 14 discriminator 2
	movzbl	(%rax), %eax
	movb	%al, (%rbx)
	.loc 14 97 73 discriminator 1
	movq	%rbx, %rax
	.loc 14 97 76
	movq	-8(%rbp), %rbx
	leave
	.cfi_def_cfa 7, 8
	ret
	.cfi_endproc
.LFE4215:
	.size	_ZSt12construct_atIcJRKcEEDTgsnwcvPvLi0E_T_pispcl7declvalIT0_EEEEPS3_DpOS4_, .-_ZSt12construct_atIcJRKcEEDTgsnwcvPvLi0E_T_pispcl7declvalIT0_EEEEPS3_DpOS4_
	.section	.text._ZN9__gnu_cxx11char_traitsIcE6lengthEPKc,"axG",@progbits,_ZN9__gnu_cxx11char_traitsIcE6lengthEPKc,comdat
	.align 2
	.weak	_ZN9__gnu_cxx11char_traitsIcE6lengthEPKc
	.type	_ZN9__gnu_cxx11char_traitsIcE6lengthEPKc, @function
_ZN9__gnu_cxx11char_traitsIcE6lengthEPKc:
.LFB4216:
	.loc 4 199 5
	.cfi_startproc
	endbr64
	pushq	%rbp
	.cfi_def_cfa_offset 16
	.cfi_offset 6, -16
	movq	%rsp, %rbp
	.cfi_def_cfa_register 6
	subq	$48, %rsp
	movq	%rdi, -40(%rbp)
	.loc 4 199 5
	movq	%fs:40, %rax
	movq	%rax, -8(%rbp)
	xorl	%eax, %eax
	.loc 4 202 19
	movq	$0, -16(%rbp)
	.loc 4 203 7
	jmp	.L124
.L125:
	.loc 4 204 9
	addq	$1, -16(%rbp)
.L124:
	.loc 4 203 17
	movb	$0, -17(%rbp)
	.loc 4 203 21
	movq	-40(%rbp), %rdx
	movq	-16(%rbp), %rax
	addq	%rax, %rdx
	.loc 4 203 17
	leaq	-17(%rbp), %rax
	movq	%rax, %rsi
	movq	%rdx, %rdi
	call	_ZN9__gnu_cxx11char_traitsIcE2eqERKcS3_
	.loc 4 203 17 is_stmt 0 discriminator 1
	xorl	$1, %eax
	testb	%al, %al
	jne	.L125
	.loc 4 205 14 is_stmt 1
	movq	-16(%rbp), %rax
	.loc 4 206 5
	movq	-8(%rbp), %rdx
	subq	%fs:40, %rdx
	je	.L127
	call	__stack_chk_fail@PLT
.L127:
	leave
	.cfi_def_cfa 7, 8
	ret
	.cfi_endproc
.LFE4216:
	.size	_ZN9__gnu_cxx11char_traitsIcE6lengthEPKc, .-_ZN9__gnu_cxx11char_traitsIcE6lengthEPKc
	.section	.text._ZN9__gnu_cxx11char_traitsIcE4copyEPcPKcm,"axG",@progbits,_ZN9__gnu_cxx11char_traitsIcE4copyEPcPKcm,comdat
	.align 2
	.weak	_ZN9__gnu_cxx11char_traitsIcE4copyEPcPKcm
	.type	_ZN9__gnu_cxx11char_traitsIcE4copyEPcPKcm, @function
_ZN9__gnu_cxx11char_traitsIcE4copyEPcPKcm:
.LFB4219:
	.loc 4 253 5
	.cfi_startproc
	endbr64
	pushq	%rbp
	.cfi_def_cfa_offset 16
	.cfi_offset 6, -16
	movq	%rsp, %rbp
	.cfi_def_cfa_register 6
	subq	$48, %rsp
	movq	%rdi, -24(%rbp)
	movq	%rsi, -32(%rbp)
	movq	%rdx, -40(%rbp)
	.loc 4 256 7
	cmpq	$0, -40(%rbp)
	jne	.L129
	.loc 4 257 9
	movq	-24(%rbp), %rax
	jmp	.L130
.L129:
.LBB190:
	.loc 4 259 39
	call	_ZSt23__is_constant_evaluatedv
	.loc 4 259 7 discriminator 1
	testb	%al, %al
	je	.L131
.LBB191:
.LBB192:
	.loc 4 261 21
	movq	$0, -8(%rbp)
	.loc 4 261 4
	jmp	.L132
.L133:
	.loc 4 262 40
	movq	-32(%rbp), %rdx
	movq	-8(%rbp), %rax
	addq	%rax, %rdx
	.loc 4 262 23
	movq	-24(%rbp), %rcx
	movq	-8(%rbp), %rax
	addq	%rcx, %rax
	movq	%rdx, %rsi
	movq	%rax, %rdi
	call	_ZSt12construct_atIcJRKcEEDTgsnwcvPvLi0E_T_pispcl7declvalIT0_EEEEPS3_DpOS4_
	.loc 4 261 4 discriminator 3
	addq	$1, -8(%rbp)
.L132:
	.loc 4 261 34 discriminator 1
	movq	-8(%rbp), %rax
	cmpq	-40(%rbp), %rax
	jb	.L133
.LBE192:
	.loc 4 263 11
	movq	-24(%rbp), %rax
	jmp	.L130
.L131:
.LBE191:
.LBE190:
	.loc 4 266 23
	movq	-24(%rbp), %rdx
	movq	-32(%rbp), %rax
	movq	%rdx, %rcx
	movq	%rax, %rsi
	movq	-40(%rbp), %rax
	movq	%rax, %rdx
	movq	%rcx, %rdi
	call	memcpy@PLT
	.loc 4 267 14
	movq	-24(%rbp), %rax
.L130:
	.loc 4 268 5
	leave
	.cfi_def_cfa 7, 8
	ret
	.cfi_endproc
.LFE4219:
	.size	_ZN9__gnu_cxx11char_traitsIcE4copyEPcPKcm, .-_ZN9__gnu_cxx11char_traitsIcE4copyEPcPKcm
	.section	.text._ZNSt7__cxx1112basic_stringIcSt11char_traitsIcESaIcEE12_Alloc_hiderD2Ev,"axG",@progbits,_ZNSt7__cxx1112basic_stringIcSt11char_traitsIcESaIcEE12_Alloc_hiderD5Ev,comdat
	.align 2
	.weak	_ZNSt7__cxx1112basic_stringIcSt11char_traitsIcESaIcEE12_Alloc_hiderD2Ev
	.type	_ZNSt7__cxx1112basic_stringIcSt11char_traitsIcESaIcEE12_Alloc_hiderD2Ev, @function
_ZNSt7__cxx1112basic_stringIcSt11char_traitsIcESaIcEE12_Alloc_hiderD2Ev:
.LFB4356:
	.file 15 "/usr/include/c++/13/bits/basic_string.h"
	.loc 15 181 14
	.cfi_startproc
	endbr64
	pushq	%rbp
	.cfi_def_cfa_offset 16
	.cfi_offset 6, -16
	movq	%rsp, %rbp
	.cfi_def_cfa_register 6
	movq	%rdi, -24(%rbp)
	movq	-24(%rbp), %rax
	movq	%rax, -8(%rbp)
.LBB193:
.LBB194:
.LBB195:
	.loc 13 184 31
	nop
.LBE195:
.LBE194:
.LBE193:
	.loc 15 181 14
	nop
	popq	%rbp
	.cfi_def_cfa 7, 8
	ret
	.cfi_endproc
.LFE4356:
	.size	_ZNSt7__cxx1112basic_stringIcSt11char_traitsIcESaIcEE12_Alloc_hiderD2Ev, .-_ZNSt7__cxx1112basic_stringIcSt11char_traitsIcESaIcEE12_Alloc_hiderD2Ev
	.weak	_ZNSt7__cxx1112basic_stringIcSt11char_traitsIcESaIcEE12_Alloc_hiderD1Ev
	.set	_ZNSt7__cxx1112basic_stringIcSt11char_traitsIcESaIcEE12_Alloc_hiderD1Ev,_ZNSt7__cxx1112basic_stringIcSt11char_traitsIcESaIcEE12_Alloc_hiderD2Ev
	.section	.text._ZNSt7__cxx1112basic_stringIcSt11char_traitsIcESaIcEED2Ev,"axG",@progbits,_ZNSt7__cxx1112basic_stringIcSt11char_traitsIcESaIcEED5Ev,comdat
	.align 2
	.weak	_ZNSt7__cxx1112basic_stringIcSt11char_traitsIcESaIcEED2Ev
	.type	_ZNSt7__cxx1112basic_stringIcSt11char_traitsIcESaIcEED2Ev, @function
_ZNSt7__cxx1112basic_stringIcSt11char_traitsIcESaIcEED2Ev:
.LFB4361:
	.loc 15 803 7
	.cfi_startproc
	.cfi_personality 0x9b,DW.ref.__gxx_personality_v0
	.cfi_lsda 0x1b,.LLSDA4361
	endbr64
	pushq	%rbp
	.cfi_def_cfa_offset 16
	.cfi_offset 6, -16
	movq	%rsp, %rbp
	.cfi_def_cfa_register 6
	subq	$16, %rsp
	movq	%rdi, -8(%rbp)
.LBB196:
	.loc 15 804 19
	movq	-8(%rbp), %rax
	movq	%rax, %rdi
	call	_ZNSt7__cxx1112basic_stringIcSt11char_traitsIcESaIcEE10_M_disposeEv
	.loc 15 804 23 discriminator 1
	movq	-8(%rbp), %rax
	movq	%rax, %rdi
	call	_ZNSt7__cxx1112basic_stringIcSt11char_traitsIcESaIcEE12_Alloc_hiderD1Ev
.LBE196:
	.loc 15 804 23 is_stmt 0
	nop
	leave
	.cfi_def_cfa 7, 8
	ret
	.cfi_endproc
.LFE4361:
	.section	.gcc_except_table
.LLSDA4361:
	.byte	0xff
	.byte	0xff
	.byte	0x1
	.uleb128 .LLSDACSE4361-.LLSDACSB4361
.LLSDACSB4361:
.LLSDACSE4361:
	.section	.text._ZNSt7__cxx1112basic_stringIcSt11char_traitsIcESaIcEED2Ev,"axG",@progbits,_ZNSt7__cxx1112basic_stringIcSt11char_traitsIcESaIcEED5Ev,comdat
	.size	_ZNSt7__cxx1112basic_stringIcSt11char_traitsIcESaIcEED2Ev, .-_ZNSt7__cxx1112basic_stringIcSt11char_traitsIcESaIcEED2Ev
	.weak	_ZNSt7__cxx1112basic_stringIcSt11char_traitsIcESaIcEED1Ev
	.set	_ZNSt7__cxx1112basic_stringIcSt11char_traitsIcESaIcEED1Ev,_ZNSt7__cxx1112basic_stringIcSt11char_traitsIcESaIcEED2Ev
	.section	.text._ZN2sf4RectIiEC2Ev,"axG",@progbits,_ZN2sf4RectIiEC5Ev,comdat
	.align 2
	.weak	_ZN2sf4RectIiEC2Ev
	.type	_ZN2sf4RectIiEC2Ev, @function
_ZN2sf4RectIiEC2Ev:
.LFB4546:
	.file 16 "/usr/include/SFML/Graphics/Rect.inl"
	.loc 16 28 1 is_stmt 1
	.cfi_startproc
	endbr64
	pushq	%rbp
	.cfi_def_cfa_offset 16
	.cfi_offset 6, -16
	movq	%rsp, %rbp
	.cfi_def_cfa_register 6
	movq	%rdi, -8(%rbp)
.LBB197:
	.loc 16 29 1
	movq	-8(%rbp), %rax
	movl	$0, (%rax)
	.loc 16 30 1
	movq	-8(%rbp), %rax
	movl	$0, 4(%rax)
	.loc 16 31 1
	movq	-8(%rbp), %rax
	movl	$0, 8(%rax)
	.loc 16 32 1
	movq	-8(%rbp), %rax
	movl	$0, 12(%rax)
.LBE197:
	.loc 16 35 1
	nop
	popq	%rbp
	.cfi_def_cfa 7, 8
	ret
	.cfi_endproc
.LFE4546:
	.size	_ZN2sf4RectIiEC2Ev, .-_ZN2sf4RectIiEC2Ev
	.weak	_ZN2sf4RectIiEC1Ev
	.set	_ZN2sf4RectIiEC1Ev,_ZN2sf4RectIiEC2Ev
	.section	.text._ZN2sf7Vector2IfEC2Eff,"axG",@progbits,_ZN2sf7Vector2IfEC5Eff,comdat
	.align 2
	.weak	_ZN2sf7Vector2IfEC2Eff
	.type	_ZN2sf7Vector2IfEC2Eff, @function
_ZN2sf7Vector2IfEC2Eff:
.LFB4552:
	.file 17 "/usr/include/SFML/System/Vector2.inl"
	.loc 17 38 8
	.cfi_startproc
	endbr64
	pushq	%rbp
	.cfi_def_cfa_offset 16
	.cfi_offset 6, -16
	movq	%rsp, %rbp
	.cfi_def_cfa_register 6
	movq	%rdi, -8(%rbp)
	movss	%xmm0, -12(%rbp)
	movss	%xmm1, -16(%rbp)
.LBB198:
	.loc 17 39 1
	movq	-8(%rbp), %rax
	movss	-12(%rbp), %xmm0
	movss	%xmm0, (%rax)
	.loc 17 40 1
	movq	-8(%rbp), %rax
	movss	-16(%rbp), %xmm0
	movss	%xmm0, 4(%rax)
.LBE198:
	.loc 17 43 1
	nop
	popq	%rbp
	.cfi_def_cfa 7, 8
	ret
	.cfi_endproc
.LFE4552:
	.size	_ZN2sf7Vector2IfEC2Eff, .-_ZN2sf7Vector2IfEC2Eff
	.weak	_ZN2sf7Vector2IfEC1Eff
	.set	_ZN2sf7Vector2IfEC1Eff,_ZN2sf7Vector2IfEC2Eff
	.section	.text._ZNSt7__cxx1112basic_stringIjSt11char_traitsIjESaIjEE12_Alloc_hiderD2Ev,"axG",@progbits,_ZNSt7__cxx1112basic_stringIjSt11char_traitsIjESaIjEE12_Alloc_hiderD5Ev,comdat
	.align 2
	.weak	_ZNSt7__cxx1112basic_stringIjSt11char_traitsIjESaIjEE12_Alloc_hiderD2Ev
	.type	_ZNSt7__cxx1112basic_stringIjSt11char_traitsIjESaIjEE12_Alloc_hiderD2Ev, @function
_ZNSt7__cxx1112basic_stringIjSt11char_traitsIjESaIjEE12_Alloc_hiderD2Ev:
.LFB4556:
	.loc 15 181 14
	.cfi_startproc
	endbr64
	pushq	%rbp
	.cfi_def_cfa_offset 16
	.cfi_offset 6, -16
	movq	%rsp, %rbp
	.cfi_def_cfa_register 6
	movq	%rdi, -24(%rbp)
	movq	-24(%rbp), %rax
	movq	%rax, -8(%rbp)
.LBB199:
.LBB200:
.LBB201:
	.loc 13 184 31
	nop
.LBE201:
.LBE200:
.LBE199:
	.loc 15 181 14
	nop
	popq	%rbp
	.cfi_def_cfa 7, 8
	ret
	.cfi_endproc
.LFE4556:
	.size	_ZNSt7__cxx1112basic_stringIjSt11char_traitsIjESaIjEE12_Alloc_hiderD2Ev, .-_ZNSt7__cxx1112basic_stringIjSt11char_traitsIjESaIjEE12_Alloc_hiderD2Ev
	.weak	_ZNSt7__cxx1112basic_stringIjSt11char_traitsIjESaIjEE12_Alloc_hiderD1Ev
	.set	_ZNSt7__cxx1112basic_stringIjSt11char_traitsIjESaIjEE12_Alloc_hiderD1Ev,_ZNSt7__cxx1112basic_stringIjSt11char_traitsIjESaIjEE12_Alloc_hiderD2Ev
	.section	.text._ZNSt7__cxx1112basic_stringIjSt11char_traitsIjESaIjEED2Ev,"axG",@progbits,_ZNSt7__cxx1112basic_stringIjSt11char_traitsIjESaIjEED5Ev,comdat
	.align 2
	.weak	_ZNSt7__cxx1112basic_stringIjSt11char_traitsIjESaIjEED2Ev
	.type	_ZNSt7__cxx1112basic_stringIjSt11char_traitsIjESaIjEED2Ev, @function
_ZNSt7__cxx1112basic_stringIjSt11char_traitsIjESaIjEED2Ev:
.LFB4558:
	.loc 15 803 7
	.cfi_startproc
	.cfi_personality 0x9b,DW.ref.__gxx_personality_v0
	.cfi_lsda 0x1b,.LLSDA4558
	endbr64
	pushq	%rbp
	.cfi_def_cfa_offset 16
	.cfi_offset 6, -16
	movq	%rsp, %rbp
	.cfi_def_cfa_register 6
	subq	$16, %rsp
	movq	%rdi, -8(%rbp)
.LBB202:
	.loc 15 804 19
	movq	-8(%rbp), %rax
	movq	%rax, %rdi
	call	_ZNSt7__cxx1112basic_stringIjSt11char_traitsIjESaIjEE10_M_disposeEv
	.loc 15 804 23 discriminator 1
	movq	-8(%rbp), %rax
	movq	%rax, %rdi
	call	_ZNSt7__cxx1112basic_stringIjSt11char_traitsIjESaIjEE12_Alloc_hiderD1Ev
.LBE202:
	.loc 15 804 23 is_stmt 0
	nop
	leave
	.cfi_def_cfa 7, 8
	ret
	.cfi_endproc
.LFE4558:
	.section	.gcc_except_table
.LLSDA4558:
	.byte	0xff
	.byte	0xff
	.byte	0x1
	.uleb128 .LLSDACSE4558-.LLSDACSB4558
.LLSDACSB4558:
.LLSDACSE4558:
	.section	.text._ZNSt7__cxx1112basic_stringIjSt11char_traitsIjESaIjEED2Ev,"axG",@progbits,_ZNSt7__cxx1112basic_stringIjSt11char_traitsIjESaIjEED5Ev,comdat
	.size	_ZNSt7__cxx1112basic_stringIjSt11char_traitsIjESaIjEED2Ev, .-_ZNSt7__cxx1112basic_stringIjSt11char_traitsIjESaIjEED2Ev
	.weak	_ZNSt7__cxx1112basic_stringIjSt11char_traitsIjESaIjEED1Ev
	.set	_ZNSt7__cxx1112basic_stringIjSt11char_traitsIjESaIjEED1Ev,_ZNSt7__cxx1112basic_stringIjSt11char_traitsIjESaIjEED2Ev
	.section	.rodata
	.align 8
.LC13:
	.string	"basic_string: construction from null is not valid"
	.section	.text._ZNSt7__cxx1112basic_stringIcSt11char_traitsIcESaIcEEC2IS3_EEPKcRKS3_,"axG",@progbits,_ZNSt7__cxx1112basic_stringIcSt11char_traitsIcESaIcEEC5IS3_EEPKcRKS3_,comdat
	.align 2
	.weak	_ZNSt7__cxx1112basic_stringIcSt11char_traitsIcESaIcEEC2IS3_EEPKcRKS3_
	.type	_ZNSt7__cxx1112basic_stringIcSt11char_traitsIcESaIcEEC2IS3_EEPKcRKS3_, @function
_ZNSt7__cxx1112basic_stringIcSt11char_traitsIcESaIcEEC2IS3_EEPKcRKS3_:
.LFB4561:
	.loc 15 641 7 is_stmt 1
	.cfi_startproc
	.cfi_personality 0x9b,DW.ref.__gxx_personality_v0
	.cfi_lsda 0x1b,.LLSDA4561
	endbr64
	pushq	%rbp
	.cfi_def_cfa_offset 16
	.cfi_offset 6, -16
	movq	%rsp, %rbp
	.cfi_def_cfa_register 6
	pushq	%rbx
	subq	$56, %rsp
	.cfi_offset 3, -24
	movq	%rdi, -40(%rbp)
	movq	%rsi, -48(%rbp)
	movq	%rdx, -56(%rbp)
.LBB203:
	.loc 15 642 9
	movq	-40(%rbp), %rbx
	movq	-40(%rbp), %rax
	movq	%rax, %rdi
	call	_ZNSt7__cxx1112basic_stringIcSt11char_traitsIcESaIcEE13_M_local_dataEv
	movq	%rax, %rcx
	.loc 15 642 9 is_stmt 0 discriminator 1
	movq	-56(%rbp), %rax
	movq	%rax, %rdx
	movq	%rcx, %rsi
	movq	%rbx, %rdi
	call	_ZNSt7__cxx1112basic_stringIcSt11char_traitsIcESaIcEE12_Alloc_hiderC1EPcRKS3_
.LBB204:
	.loc 15 645 2 is_stmt 1
	cmpq	$0, -48(%rbp)
	jne	.L141
	.loc 15 646 28
	leaq	.LC13(%rip), %rax
	movq	%rax, %rdi
.LEHB29:
	call	_ZSt19__throw_logic_errorPKc@PLT
.L141:
	.loc 15 648 49
	movq	-48(%rbp), %rax
	movq	%rax, %rdi
	call	_ZNSt11char_traitsIcE6lengthEPKc
	.loc 15 648 16 discriminator 1
	movq	-48(%rbp), %rdx
	addq	%rdx, %rax
	movq	%rax, -24(%rbp)
	.loc 15 649 14
	movq	-24(%rbp), %rdx
	movq	-48(%rbp), %rcx
	movq	-40(%rbp), %rax
	movq	%rcx, %rsi
	movq	%rax, %rdi
	call	_ZNSt7__cxx1112basic_stringIcSt11char_traitsIcESaIcEE12_M_constructIPKcEEvT_S8_St20forward_iterator_tag
.LEHE29:
.LBE204:
.LBE203:
	.loc 15 650 7
	jmp	.L144
.L143:
	endbr64
.LBB205:
	movq	%rax, %rbx
	movq	-40(%rbp), %rax
	movq	%rax, %rdi
	call	_ZNSt7__cxx1112basic_stringIcSt11char_traitsIcESaIcEE12_Alloc_hiderD1Ev
	movq	%rbx, %rax
	movq	%rax, %rdi
.LEHB30:
	call	_Unwind_Resume@PLT
.LEHE30:
.L144:
.LBE205:
	movq	-8(%rbp), %rbx
	leave
	.cfi_def_cfa 7, 8
	ret
	.cfi_endproc
.LFE4561:
	.section	.gcc_except_table
.LLSDA4561:
	.byte	0xff
	.byte	0xff
	.byte	0x1
	.uleb128 .LLSDACSE4561-.LLSDACSB4561
.LLSDACSB4561:
	.uleb128 .LEHB29-.LFB4561
	.uleb128 .LEHE29-.LEHB29
	.uleb128 .L143-.LFB4561
	.uleb128 0
	.uleb128 .LEHB30-.LFB4561
	.uleb128 .LEHE30-.LEHB30
	.uleb128 0
	.uleb128 0
.LLSDACSE4561:
	.section	.text._ZNSt7__cxx1112basic_stringIcSt11char_traitsIcESaIcEEC2IS3_EEPKcRKS3_,"axG",@progbits,_ZNSt7__cxx1112basic_stringIcSt11char_traitsIcESaIcEEC5IS3_EEPKcRKS3_,comdat
	.size	_ZNSt7__cxx1112basic_stringIcSt11char_traitsIcESaIcEEC2IS3_EEPKcRKS3_, .-_ZNSt7__cxx1112basic_stringIcSt11char_traitsIcESaIcEEC2IS3_EEPKcRKS3_
	.weak	_ZNSt7__cxx1112basic_stringIcSt11char_traitsIcESaIcEEC1IS3_EEPKcRKS3_
	.set	_ZNSt7__cxx1112basic_stringIcSt11char_traitsIcESaIcEEC1IS3_EEPKcRKS3_,_ZNSt7__cxx1112basic_stringIcSt11char_traitsIcESaIcEEC2IS3_EEPKcRKS3_
	.section	.text._ZNSt6vectorIN2sf6VertexESaIS1_EED2Ev,"axG",@progbits,_ZNSt6vectorIN2sf6VertexESaIS1_EED5Ev,comdat
	.align 2
	.weak	_ZNSt6vectorIN2sf6VertexESaIS1_EED2Ev
	.type	_ZNSt6vectorIN2sf6VertexESaIS1_EED2Ev, @function
_ZNSt6vectorIN2sf6VertexESaIS1_EED2Ev:
.LFB4565:
	.file 18 "/usr/include/c++/13/bits/stl_vector.h"
	.loc 18 733 7
	.cfi_startproc
	.cfi_personality 0x9b,DW.ref.__gxx_personality_v0
	.cfi_lsda 0x1b,.LLSDA4565
	endbr64
	pushq	%rbp
	.cfi_def_cfa_offset 16
	.cfi_offset 6, -16
	movq	%rsp, %rbp
	.cfi_def_cfa_register 6
	subq	$48, %rsp
	movq	%rdi, -40(%rbp)
.LBB206:
	.loc 18 736 28
	movq	-40(%rbp), %rax
	movq	%rax, %rdi
	call	_ZNSt12_Vector_baseIN2sf6VertexESaIS1_EE19_M_get_Tp_allocatorEv
	.loc 18 735 15
	movq	-40(%rbp), %rdx
	movq	8(%rdx), %rdx
	movq	-40(%rbp), %rcx
	movq	(%rcx), %rcx
	movq	%rcx, -24(%rbp)
	movq	%rdx, -16(%rbp)
	movq	%rax, -8(%rbp)
.LBB207:
.LBB208:
	.file 19 "/usr/include/c++/13/bits/alloc_traits.h"
	.loc 19 948 20
	movq	-16(%rbp), %rdx
	movq	-24(%rbp), %rax
	movq	%rdx, %rsi
	movq	%rax, %rdi
	call	_ZSt8_DestroyIPN2sf6VertexEEvT_S3_
	.loc 19 949 5
	nop
.LBE208:
.LBE207:
	.loc 18 738 7
	movq	-40(%rbp), %rax
	movq	%rax, %rdi
	call	_ZNSt12_Vector_baseIN2sf6VertexESaIS1_EED2Ev
.LBE206:
	nop
	leave
	.cfi_def_cfa 7, 8
	ret
	.cfi_endproc
.LFE4565:
	.section	.gcc_except_table
.LLSDA4565:
	.byte	0xff
	.byte	0xff
	.byte	0x1
	.uleb128 .LLSDACSE4565-.LLSDACSB4565
.LLSDACSB4565:
.LLSDACSE4565:
	.section	.text._ZNSt6vectorIN2sf6VertexESaIS1_EED2Ev,"axG",@progbits,_ZNSt6vectorIN2sf6VertexESaIS1_EED5Ev,comdat
	.size	_ZNSt6vectorIN2sf6VertexESaIS1_EED2Ev, .-_ZNSt6vectorIN2sf6VertexESaIS1_EED2Ev
	.weak	_ZNSt6vectorIN2sf6VertexESaIS1_EED1Ev
	.set	_ZNSt6vectorIN2sf6VertexESaIS1_EED1Ev,_ZNSt6vectorIN2sf6VertexESaIS1_EED2Ev
	.section	.text._ZSt7forwardIRKcEOT_RNSt16remove_referenceIS2_E4typeE,"axG",@progbits,_ZSt7forwardIRKcEOT_RNSt16remove_referenceIS2_E4typeE,comdat
	.weak	_ZSt7forwardIRKcEOT_RNSt16remove_referenceIS2_E4typeE
	.type	_ZSt7forwardIRKcEOT_RNSt16remove_referenceIS2_E4typeE, @function
_ZSt7forwardIRKcEOT_RNSt16remove_referenceIS2_E4typeE:
.LFB4567:
	.file 20 "/usr/include/c++/13/bits/move.h"
	.loc 20 70 5
	.cfi_startproc
	endbr64
	pushq	%rbp
	.cfi_def_cfa_offset 16
	.cfi_offset 6, -16
	movq	%rsp, %rbp
	.cfi_def_cfa_register 6
	movq	%rdi, -8(%rbp)
	.loc 20 71 36
	movq	-8(%rbp), %rax
	.loc 20 71 39
	popq	%rbp
	.cfi_def_cfa 7, 8
	ret
	.cfi_endproc
.LFE4567:
	.size	_ZSt7forwardIRKcEOT_RNSt16remove_referenceIS2_E4typeE, .-_ZSt7forwardIRKcEOT_RNSt16remove_referenceIS2_E4typeE
	.section	.text._ZN9__gnu_cxx11char_traitsIcE2eqERKcS3_,"axG",@progbits,_ZN9__gnu_cxx11char_traitsIcE2eqERKcS3_,comdat
	.weak	_ZN9__gnu_cxx11char_traitsIcE2eqERKcS3_
	.type	_ZN9__gnu_cxx11char_traitsIcE2eqERKcS3_, @function
_ZN9__gnu_cxx11char_traitsIcE2eqERKcS3_:
.LFB4568:
	.loc 4 136 7
	.cfi_startproc
	endbr64
	pushq	%rbp
	.cfi_def_cfa_offset 16
	.cfi_offset 6, -16
	movq	%rsp, %rbp
	.cfi_def_cfa_register 6
	movq	%rdi, -8(%rbp)
	movq	%rsi, -16(%rbp)
	.loc 4 137 21
	movq	-8(%rbp), %rax
	movzbl	(%rax), %edx
	movq	-16(%rbp), %rax
	movzbl	(%rax), %eax
	.loc 4 137 24
	cmpb	%al, %dl
	sete	%al
	.loc 4 137 30
	popq	%rbp
	.cfi_def_cfa 7, 8
	ret
	.cfi_endproc
.LFE4568:
	.size	_ZN9__gnu_cxx11char_traitsIcE2eqERKcS3_, .-_ZN9__gnu_cxx11char_traitsIcE2eqERKcS3_
	.section	.text._ZNKSt7__cxx1112basic_stringIcSt11char_traitsIcESaIcEE7_M_dataEv,"axG",@progbits,_ZNKSt7__cxx1112basic_stringIcSt11char_traitsIcESaIcEE7_M_dataEv,comdat
	.align 2
	.weak	_ZNKSt7__cxx1112basic_stringIcSt11char_traitsIcESaIcEE7_M_dataEv
	.type	_ZNKSt7__cxx1112basic_stringIcSt11char_traitsIcESaIcEE7_M_dataEv, @function
_ZNKSt7__cxx1112basic_stringIcSt11char_traitsIcESaIcEE7_M_dataEv:
.LFB4585:
	.loc 15 222 7
	.cfi_startproc
	endbr64
	pushq	%rbp
	.cfi_def_cfa_offset 16
	.cfi_offset 6, -16
	movq	%rsp, %rbp
	.cfi_def_cfa_register 6
	movq	%rdi, -8(%rbp)
	.loc 15 223 28
	movq	-8(%rbp), %rax
	movq	(%rax), %rax
	.loc 15 223 34
	popq	%rbp
	.cfi_def_cfa 7, 8
	ret
	.cfi_endproc
.LFE4585:
	.size	_ZNKSt7__cxx1112basic_stringIcSt11char_traitsIcESaIcEE7_M_dataEv, .-_ZNKSt7__cxx1112basic_stringIcSt11char_traitsIcESaIcEE7_M_dataEv
	.section	.text._ZNSt7__cxx1112basic_stringIcSt11char_traitsIcESaIcEE13_M_local_dataEv,"axG",@progbits,_ZNSt7__cxx1112basic_stringIcSt11char_traitsIcESaIcEE13_M_local_dataEv,comdat
	.align 2
	.weak	_ZNSt7__cxx1112basic_stringIcSt11char_traitsIcESaIcEE13_M_local_dataEv
	.type	_ZNSt7__cxx1112basic_stringIcSt11char_traitsIcESaIcEE13_M_local_dataEv, @function
_ZNSt7__cxx1112basic_stringIcSt11char_traitsIcESaIcEE13_M_local_dataEv:
.LFB4589:
	.loc 15 227 7
	.cfi_startproc
	endbr64
	pushq	%rbp
	.cfi_def_cfa_offset 16
	.cfi_offset 6, -16
	movq	%rsp, %rbp
	.cfi_def_cfa_register 6
	subq	$16, %rsp
	movq	%rdi, -8(%rbp)
	.loc 15 230 51
	movq	-8(%rbp), %rax
	addq	$16, %rax
	.loc 15 230 49
	movq	%rax, %rdi
	call	_ZNSt19__ptr_traits_ptr_toIPccLb0EE10pointer_toERc
	.loc 15 234 7
	leave
	.cfi_def_cfa 7, 8
	ret
	.cfi_endproc
.LFE4589:
	.size	_ZNSt7__cxx1112basic_stringIcSt11char_traitsIcESaIcEE13_M_local_dataEv, .-_ZNSt7__cxx1112basic_stringIcSt11char_traitsIcESaIcEE13_M_local_dataEv
	.section	.text._ZNSt7__cxx1112basic_stringIcSt11char_traitsIcESaIcEE12_Alloc_hiderC2EPcRKS3_,"axG",@progbits,_ZNSt7__cxx1112basic_stringIcSt11char_traitsIcESaIcEE12_Alloc_hiderC5EPcRKS3_,comdat
	.align 2
	.weak	_ZNSt7__cxx1112basic_stringIcSt11char_traitsIcESaIcEE12_Alloc_hiderC2EPcRKS3_
	.type	_ZNSt7__cxx1112basic_stringIcSt11char_traitsIcESaIcEE12_Alloc_hiderC2EPcRKS3_, @function
_ZNSt7__cxx1112basic_stringIcSt11char_traitsIcESaIcEE12_Alloc_hiderC2EPcRKS3_:
.LFB4591:
	.loc 15 188 2
	.cfi_startproc
	endbr64
	pushq	%rbp
	.cfi_def_cfa_offset 16
	.cfi_offset 6, -16
	movq	%rsp, %rbp
	.cfi_def_cfa_register 6
	movq	%rdi, -40(%rbp)
	movq	%rsi, -48(%rbp)
	movq	%rdx, -56(%rbp)
	movq	-40(%rbp), %rax
	movq	%rax, -32(%rbp)
	movq	-56(%rbp), %rax
	movq	%rax, -24(%rbp)
	movq	-32(%rbp), %rax
	movq	%rax, -16(%rbp)
	movq	-24(%rbp), %rax
	movq	%rax, -8(%rbp)
.LBB209:
.LBB210:
.LBB211:
.LBB212:
.LBB213:
.LBB214:
	.loc 12 92 58
	nop
.LBE214:
.LBE213:
.LBE212:
	.loc 13 168 38
	nop
.LBE211:
.LBE210:
	.loc 15 189 25 discriminator 1
	movq	-40(%rbp), %rax
	movq	-48(%rbp), %rdx
	movq	%rdx, (%rax)
.LBE209:
	.loc 15 189 39
	nop
	popq	%rbp
	.cfi_def_cfa 7, 8
	ret
	.cfi_endproc
.LFE4591:
	.size	_ZNSt7__cxx1112basic_stringIcSt11char_traitsIcESaIcEE12_Alloc_hiderC2EPcRKS3_, .-_ZNSt7__cxx1112basic_stringIcSt11char_traitsIcESaIcEE12_Alloc_hiderC2EPcRKS3_
	.weak	_ZNSt7__cxx1112basic_stringIcSt11char_traitsIcESaIcEE12_Alloc_hiderC1EPcRKS3_
	.set	_ZNSt7__cxx1112basic_stringIcSt11char_traitsIcESaIcEE12_Alloc_hiderC1EPcRKS3_,_ZNSt7__cxx1112basic_stringIcSt11char_traitsIcESaIcEE12_Alloc_hiderC2EPcRKS3_
	.section	.text._ZNSt7__cxx1112basic_stringIcSt11char_traitsIcESaIcEE10_M_disposeEv,"axG",@progbits,_ZNSt7__cxx1112basic_stringIcSt11char_traitsIcESaIcEE10_M_disposeEv,comdat
	.align 2
	.weak	_ZNSt7__cxx1112basic_stringIcSt11char_traitsIcESaIcEE10_M_disposeEv
	.type	_ZNSt7__cxx1112basic_stringIcSt11char_traitsIcESaIcEE10_M_disposeEv, @function
_ZNSt7__cxx1112basic_stringIcSt11char_traitsIcESaIcEE10_M_disposeEv:
.LFB4594:
	.loc 15 280 7
	.cfi_startproc
	endbr64
	pushq	%rbp
	.cfi_def_cfa_offset 16
	.cfi_offset 6, -16
	movq	%rsp, %rbp
	.cfi_def_cfa_register 6
	subq	$16, %rsp
	movq	%rdi, -8(%rbp)
	.loc 15 282 18
	movq	-8(%rbp), %rax
	movq	%rax, %rdi
	call	_ZNKSt7__cxx1112basic_stringIcSt11char_traitsIcESaIcEE11_M_is_localEv
	.loc 15 282 18 is_stmt 0 discriminator 1
	xorl	$1, %eax
	.loc 15 282 2 is_stmt 1 discriminator 1
	testb	%al, %al
	je	.L157
	.loc 15 283 14
	movq	-8(%rbp), %rax
	movq	16(%rax), %rdx
	movq	-8(%rbp), %rax
	movq	%rdx, %rsi
	movq	%rax, %rdi
	call	_ZNSt7__cxx1112basic_stringIcSt11char_traitsIcESaIcEE10_M_destroyEm
.L157:
	.loc 15 284 7
	nop
	leave
	.cfi_def_cfa 7, 8
	ret
	.cfi_endproc
.LFE4594:
	.size	_ZNSt7__cxx1112basic_stringIcSt11char_traitsIcESaIcEE10_M_disposeEv, .-_ZNSt7__cxx1112basic_stringIcSt11char_traitsIcESaIcEE10_M_disposeEv
	.section	.text._ZNSt7__cxx1112basic_stringIcSt11char_traitsIcESaIcEE16_M_get_allocatorEv,"axG",@progbits,_ZNSt7__cxx1112basic_stringIcSt11char_traitsIcESaIcEE16_M_get_allocatorEv,comdat
	.align 2
	.weak	_ZNSt7__cxx1112basic_stringIcSt11char_traitsIcESaIcEE16_M_get_allocatorEv
	.type	_ZNSt7__cxx1112basic_stringIcSt11char_traitsIcESaIcEE16_M_get_allocatorEv, @function
_ZNSt7__cxx1112basic_stringIcSt11char_traitsIcESaIcEE16_M_get_allocatorEv:
.LFB4595:
	.loc 15 336 7
	.cfi_startproc
	endbr64
	pushq	%rbp
	.cfi_def_cfa_offset 16
	.cfi_offset 6, -16
	movq	%rsp, %rbp
	.cfi_def_cfa_register 6
	movq	%rdi, -8(%rbp)
	.loc 15 337 16
	movq	-8(%rbp), %rax
	.loc 15 337 29
	popq	%rbp
	.cfi_def_cfa 7, 8
	ret
	.cfi_endproc
.LFE4595:
	.size	_ZNSt7__cxx1112basic_stringIcSt11char_traitsIcESaIcEE16_M_get_allocatorEv, .-_ZNSt7__cxx1112basic_stringIcSt11char_traitsIcESaIcEE16_M_get_allocatorEv
	.section	.text._ZNKSt7__cxx1112basic_stringIcSt11char_traitsIcESaIcEE11_M_is_localEv,"axG",@progbits,_ZNKSt7__cxx1112basic_stringIcSt11char_traitsIcESaIcEE11_M_is_localEv,comdat
	.align 2
	.weak	_ZNKSt7__cxx1112basic_stringIcSt11char_traitsIcESaIcEE11_M_is_localEv
	.type	_ZNKSt7__cxx1112basic_stringIcSt11char_traitsIcESaIcEE11_M_is_localEv, @function
_ZNKSt7__cxx1112basic_stringIcSt11char_traitsIcESaIcEE11_M_is_localEv:
.LFB4600:
	.loc 15 262 7
	.cfi_startproc
	endbr64
	pushq	%rbp
	.cfi_def_cfa_offset 16
	.cfi_offset 6, -16
	movq	%rsp, %rbp
	.cfi_def_cfa_register 6
	pushq	%rbx
	subq	$24, %rsp
	.cfi_offset 3, -24
	movq	%rdi, -24(%rbp)
	.loc 15 264 13
	movq	-24(%rbp), %rax
	movq	%rax, %rdi
	call	_ZNKSt7__cxx1112basic_stringIcSt11char_traitsIcESaIcEE7_M_dataEv
	movq	%rax, %rbx
	.loc 15 264 32 discriminator 1
	movq	-24(%rbp), %rax
	movq	%rax, %rdi
	call	_ZNKSt7__cxx1112basic_stringIcSt11char_traitsIcESaIcEE13_M_local_dataEv
	.loc 15 264 16 discriminator 2
	cmpq	%rax, %rbx
	sete	%al
	.loc 15 264 2 discriminator 2
	testb	%al, %al
	je	.L161
	.loc 15 266 10
	movq	-24(%rbp), %rax
	movq	8(%rax), %rax
	.loc 15 266 6
	cmpq	$15, %rax
	.loc 15 268 13
	movl	$1, %eax
	jmp	.L163
.L161:
	.loc 15 270 9
	movl	$0, %eax
.L163:
	.loc 15 271 7
	movq	-8(%rbp), %rbx
	leave
	.cfi_def_cfa 7, 8
	ret
	.cfi_endproc
.LFE4600:
	.size	_ZNKSt7__cxx1112basic_stringIcSt11char_traitsIcESaIcEE11_M_is_localEv, .-_ZNKSt7__cxx1112basic_stringIcSt11char_traitsIcESaIcEE11_M_is_localEv
	.section	.text._ZNSt7__cxx1112basic_stringIcSt11char_traitsIcESaIcEE7_M_dataEPc,"axG",@progbits,_ZNSt7__cxx1112basic_stringIcSt11char_traitsIcESaIcEE7_M_dataEPc,comdat
	.align 2
	.weak	_ZNSt7__cxx1112basic_stringIcSt11char_traitsIcESaIcEE7_M_dataEPc
	.type	_ZNSt7__cxx1112basic_stringIcSt11char_traitsIcESaIcEE7_M_dataEPc, @function
_ZNSt7__cxx1112basic_stringIcSt11char_traitsIcESaIcEE7_M_dataEPc:
.LFB4603:
	.loc 15 212 7
	.cfi_startproc
	endbr64
	pushq	%rbp
	.cfi_def_cfa_offset 16
	.cfi_offset 6, -16
	movq	%rsp, %rbp
	.cfi_def_cfa_register 6
	movq	%rdi, -8(%rbp)
	movq	%rsi, -16(%rbp)
	.loc 15 213 26
	movq	-8(%rbp), %rax
	movq	-16(%rbp), %rdx
	movq	%rdx, (%rax)
	.loc 15 213 33
	nop
	popq	%rbp
	.cfi_def_cfa 7, 8
	ret
	.cfi_endproc
.LFE4603:
	.size	_ZNSt7__cxx1112basic_stringIcSt11char_traitsIcESaIcEE7_M_dataEPc, .-_ZNSt7__cxx1112basic_stringIcSt11char_traitsIcESaIcEE7_M_dataEPc
	.section	.text._ZNSt7__cxx1112basic_stringIcSt11char_traitsIcESaIcEE11_M_capacityEm,"axG",@progbits,_ZNSt7__cxx1112basic_stringIcSt11char_traitsIcESaIcEE11_M_capacityEm,comdat
	.align 2
	.weak	_ZNSt7__cxx1112basic_stringIcSt11char_traitsIcESaIcEE11_M_capacityEm
	.type	_ZNSt7__cxx1112basic_stringIcSt11char_traitsIcESaIcEE11_M_capacityEm, @function
_ZNSt7__cxx1112basic_stringIcSt11char_traitsIcESaIcEE11_M_capacityEm:
.LFB4604:
	.loc 15 249 7
	.cfi_startproc
	endbr64
	pushq	%rbp
	.cfi_def_cfa_offset 16
	.cfi_offset 6, -16
	movq	%rsp, %rbp
	.cfi_def_cfa_register 6
	movq	%rdi, -8(%rbp)
	movq	%rsi, -16(%rbp)
	.loc 15 250 31
	movq	-8(%rbp), %rax
	movq	-16(%rbp), %rdx
	movq	%rdx, 16(%rax)
	.loc 15 250 45
	nop
	popq	%rbp
	.cfi_def_cfa 7, 8
	ret
	.cfi_endproc
.LFE4604:
	.size	_ZNSt7__cxx1112basic_stringIcSt11char_traitsIcESaIcEE11_M_capacityEm, .-_ZNSt7__cxx1112basic_stringIcSt11char_traitsIcESaIcEE11_M_capacityEm
	.section	.text._ZNSt7__cxx1112basic_stringIcSt11char_traitsIcESaIcEE9_M_lengthEm,"axG",@progbits,_ZNSt7__cxx1112basic_stringIcSt11char_traitsIcESaIcEE9_M_lengthEm,comdat
	.align 2
	.weak	_ZNSt7__cxx1112basic_stringIcSt11char_traitsIcESaIcEE9_M_lengthEm
	.type	_ZNSt7__cxx1112basic_stringIcSt11char_traitsIcESaIcEE9_M_lengthEm, @function
_ZNSt7__cxx1112basic_stringIcSt11char_traitsIcESaIcEE9_M_lengthEm:
.LFB4605:
	.loc 15 217 7
	.cfi_startproc
	endbr64
	pushq	%rbp
	.cfi_def_cfa_offset 16
	.cfi_offset 6, -16
	movq	%rsp, %rbp
	.cfi_def_cfa_register 6
	movq	%rdi, -8(%rbp)
	movq	%rsi, -16(%rbp)
	.loc 15 218 26
	movq	-8(%rbp), %rax
	movq	-16(%rbp), %rdx
	movq	%rdx, 8(%rax)
	.loc 15 218 38
	nop
	popq	%rbp
	.cfi_def_cfa 7, 8
	ret
	.cfi_endproc
.LFE4605:
	.size	_ZNSt7__cxx1112basic_stringIcSt11char_traitsIcESaIcEE9_M_lengthEm, .-_ZNSt7__cxx1112basic_stringIcSt11char_traitsIcESaIcEE9_M_lengthEm
	.section	.text._ZNSt7__cxx1112basic_stringIcSt11char_traitsIcESaIcEE13_M_set_lengthEm,"axG",@progbits,_ZNSt7__cxx1112basic_stringIcSt11char_traitsIcESaIcEE13_M_set_lengthEm,comdat
	.align 2
	.weak	_ZNSt7__cxx1112basic_stringIcSt11char_traitsIcESaIcEE13_M_set_lengthEm
	.type	_ZNSt7__cxx1112basic_stringIcSt11char_traitsIcESaIcEE13_M_set_lengthEm, @function
_ZNSt7__cxx1112basic_stringIcSt11char_traitsIcESaIcEE13_M_set_lengthEm:
.LFB4607:
	.loc 15 254 7
	.cfi_startproc
	endbr64
	pushq	%rbp
	.cfi_def_cfa_offset 16
	.cfi_offset 6, -16
	movq	%rsp, %rbp
	.cfi_def_cfa_register 6
	subq	$32, %rsp
	movq	%rdi, -24(%rbp)
	movq	%rsi, -32(%rbp)
	.loc 15 254 7
	movq	%fs:40, %rax
	movq	%rax, -8(%rbp)
	xorl	%eax, %eax
	.loc 15 256 11
	movq	-32(%rbp), %rdx
	movq	-24(%rbp), %rax
	movq	%rdx, %rsi
	movq	%rax, %rdi
	call	_ZNSt7__cxx1112basic_stringIcSt11char_traitsIcESaIcEE9_M_lengthEm
	.loc 15 257 21
	movb	$0, -9(%rbp)
	.loc 15 257 29
	movq	-24(%rbp), %rax
	movq	%rax, %rdi
	call	_ZNKSt7__cxx1112basic_stringIcSt11char_traitsIcESaIcEE7_M_dataEv
	.loc 15 257 31 discriminator 1
	movq	-32(%rbp), %rdx
	addq	%rax, %rdx
	.loc 15 257 21 discriminator 1
	leaq	-9(%rbp), %rax
	movq	%rax, %rsi
	movq	%rdx, %rdi
	call	_ZNSt11char_traitsIcE6assignERcRKc
	.loc 15 258 7
	nop
	movq	-8(%rbp), %rax
	subq	%fs:40, %rax
	je	.L168
	call	__stack_chk_fail@PLT
.L168:
	leave
	.cfi_def_cfa 7, 8
	ret
	.cfi_endproc
.LFE4607:
	.size	_ZNSt7__cxx1112basic_stringIcSt11char_traitsIcESaIcEE13_M_set_lengthEm, .-_ZNSt7__cxx1112basic_stringIcSt11char_traitsIcESaIcEE13_M_set_lengthEm
	.section	.text._ZZNSt7__cxx1112basic_stringIcSt11char_traitsIcESaIcEE12_M_constructIPKcEEvT_S8_St20forward_iterator_tagEN6_GuardC2EPS4_,"axG",@progbits,_ZZNSt7__cxx1112basic_stringIcSt11char_traitsIcESaIcEE12_M_constructIPKcEEvT_S8_St20forward_iterator_tagEN6_GuardC5EPS4_,comdat
	.align 2
	.weak	_ZZNSt7__cxx1112basic_stringIcSt11char_traitsIcESaIcEE12_M_constructIPKcEEvT_S8_St20forward_iterator_tagEN6_GuardC2EPS4_
	.type	_ZZNSt7__cxx1112basic_stringIcSt11char_traitsIcESaIcEE12_M_constructIPKcEEvT_S8_St20forward_iterator_tagEN6_GuardC2EPS4_, @function
_ZZNSt7__cxx1112basic_stringIcSt11char_traitsIcESaIcEE12_M_constructIPKcEEvT_S8_St20forward_iterator_tagEN6_GuardC2EPS4_:
.LFB4618:
	.file 21 "/usr/include/c++/13/bits/basic_string.tcc"
	.loc 21 239 13
	.cfi_startproc
	endbr64
	pushq	%rbp
	.cfi_def_cfa_offset 16
	.cfi_offset 6, -16
	movq	%rsp, %rbp
	.cfi_def_cfa_register 6
	movq	%rdi, -8(%rbp)
	movq	%rsi, -16(%rbp)
.LBB215:
	.loc 21 239 41
	movq	-8(%rbp), %rax
	movq	-16(%rbp), %rdx
	movq	%rdx, (%rax)
.LBE215:
	.loc 21 239 59
	nop
	popq	%rbp
	.cfi_def_cfa 7, 8
	ret
	.cfi_endproc
.LFE4618:
	.size	_ZZNSt7__cxx1112basic_stringIcSt11char_traitsIcESaIcEE12_M_constructIPKcEEvT_S8_St20forward_iterator_tagEN6_GuardC2EPS4_, .-_ZZNSt7__cxx1112basic_stringIcSt11char_traitsIcESaIcEE12_M_constructIPKcEEvT_S8_St20forward_iterator_tagEN6_GuardC2EPS4_
	.weak	_ZZNSt7__cxx1112basic_stringIcSt11char_traitsIcESaIcEE12_M_constructIPKcEEvT_S8_St20forward_iterator_tagEN6_GuardC1EPS4_
	.set	_ZZNSt7__cxx1112basic_stringIcSt11char_traitsIcESaIcEE12_M_constructIPKcEEvT_S8_St20forward_iterator_tagEN6_GuardC1EPS4_,_ZZNSt7__cxx1112basic_stringIcSt11char_traitsIcESaIcEE12_M_constructIPKcEEvT_S8_St20forward_iterator_tagEN6_GuardC2EPS4_
	.section	.text._ZZNSt7__cxx1112basic_stringIcSt11char_traitsIcESaIcEE12_M_constructIPKcEEvT_S8_St20forward_iterator_tagEN6_GuardD2Ev,"axG",@progbits,_ZZNSt7__cxx1112basic_stringIcSt11char_traitsIcESaIcEE12_M_constructIPKcEEvT_S8_St20forward_iterator_tagEN6_GuardD5Ev,comdat
	.align 2
	.weak	_ZZNSt7__cxx1112basic_stringIcSt11char_traitsIcESaIcEE12_M_constructIPKcEEvT_S8_St20forward_iterator_tagEN6_GuardD2Ev
	.type	_ZZNSt7__cxx1112basic_stringIcSt11char_traitsIcESaIcEE12_M_constructIPKcEEvT_S8_St20forward_iterator_tagEN6_GuardD2Ev, @function
_ZZNSt7__cxx1112basic_stringIcSt11char_traitsIcESaIcEE12_M_constructIPKcEEvT_S8_St20forward_iterator_tagEN6_GuardD2Ev:
.LFB4621:
	.loc 21 242 4
	.cfi_startproc
	.cfi_personality 0x9b,DW.ref.__gxx_personality_v0
	.cfi_lsda 0x1b,.LLSDA4621
	endbr64
	pushq	%rbp
	.cfi_def_cfa_offset 16
	.cfi_offset 6, -16
	movq	%rsp, %rbp
	.cfi_def_cfa_register 6
	subq	$16, %rsp
	movq	%rdi, -8(%rbp)
.LBB216:
	.loc 21 242 20
	movq	-8(%rbp), %rax
	movq	(%rax), %rax
	.loc 21 242 16
	testq	%rax, %rax
	je	.L172
	.loc 21 242 32 discriminator 1
	movq	-8(%rbp), %rax
	movq	(%rax), %rax
	.loc 21 242 54 discriminator 1
	movq	%rax, %rdi
	call	_ZNSt7__cxx1112basic_stringIcSt11char_traitsIcESaIcEE10_M_disposeEv
.L172:
.LBE216:
	.loc 21 242 58
	nop
	leave
	.cfi_def_cfa 7, 8
	ret
	.cfi_endproc
.LFE4621:
	.section	.gcc_except_table
.LLSDA4621:
	.byte	0xff
	.byte	0xff
	.byte	0x1
	.uleb128 .LLSDACSE4621-.LLSDACSB4621
.LLSDACSB4621:
.LLSDACSE4621:
	.section	.text._ZZNSt7__cxx1112basic_stringIcSt11char_traitsIcESaIcEE12_M_constructIPKcEEvT_S8_St20forward_iterator_tagEN6_GuardD2Ev,"axG",@progbits,_ZZNSt7__cxx1112basic_stringIcSt11char_traitsIcESaIcEE12_M_constructIPKcEEvT_S8_St20forward_iterator_tagEN6_GuardD5Ev,comdat
	.size	_ZZNSt7__cxx1112basic_stringIcSt11char_traitsIcESaIcEE12_M_constructIPKcEEvT_S8_St20forward_iterator_tagEN6_GuardD2Ev, .-_ZZNSt7__cxx1112basic_stringIcSt11char_traitsIcESaIcEE12_M_constructIPKcEEvT_S8_St20forward_iterator_tagEN6_GuardD2Ev
	.weak	_ZZNSt7__cxx1112basic_stringIcSt11char_traitsIcESaIcEE12_M_constructIPKcEEvT_S8_St20forward_iterator_tagEN6_GuardD1Ev
	.set	_ZZNSt7__cxx1112basic_stringIcSt11char_traitsIcESaIcEE12_M_constructIPKcEEvT_S8_St20forward_iterator_tagEN6_GuardD1Ev,_ZZNSt7__cxx1112basic_stringIcSt11char_traitsIcESaIcEE12_M_constructIPKcEEvT_S8_St20forward_iterator_tagEN6_GuardD2Ev
	.section	.text._ZNSt7__cxx1112basic_stringIcSt11char_traitsIcESaIcEE12_M_constructIPKcEEvT_S8_St20forward_iterator_tag,"axG",@progbits,_ZNSt7__cxx1112basic_stringIcSt11char_traitsIcESaIcEE12_M_constructIPKcEEvT_S8_St20forward_iterator_tag,comdat
	.align 2
	.weak	_ZNSt7__cxx1112basic_stringIcSt11char_traitsIcESaIcEE12_M_constructIPKcEEvT_S8_St20forward_iterator_tag
	.type	_ZNSt7__cxx1112basic_stringIcSt11char_traitsIcESaIcEE12_M_constructIPKcEEvT_S8_St20forward_iterator_tag, @function
_ZNSt7__cxx1112basic_stringIcSt11char_traitsIcESaIcEE12_M_constructIPKcEEvT_S8_St20forward_iterator_tag:
.LFB4616:
	.loc 21 221 7
	.cfi_startproc
	endbr64
	pushq	%rbp
	.cfi_def_cfa_offset 16
	.cfi_offset 6, -16
	movq	%rsp, %rbp
	.cfi_def_cfa_register 6
	subq	$96, %rsp
	movq	%rdi, -72(%rbp)
	movq	%rsi, -80(%rbp)
	movq	%rdx, -88(%rbp)
	.loc 21 221 7
	movq	%fs:40, %rax
	movq	%rax, -8(%rbp)
	xorl	%eax, %eax
	movq	-80(%rbp), %rax
	movq	%rax, -56(%rbp)
	movq	-88(%rbp), %rax
	movq	%rax, -48(%rbp)
.LBB217:
.LBB218:
.LBB219:
.LBB220:
	.file 22 "/usr/include/c++/13/bits/stl_iterator_base_types.h"
	.loc 22 240 65
	nop
.LBE220:
.LBE219:
	.file 23 "/usr/include/c++/13/bits/stl_iterator_base_funcs.h"
	.loc 23 151 29
	movq	-56(%rbp), %rax
	movq	%rax, -40(%rbp)
	movq	-48(%rbp), %rax
	movq	%rax, -32(%rbp)
.LBB221:
.LBB222:
	.loc 23 106 23
	movq	-32(%rbp), %rax
	subq	-40(%rbp), %rax
.LBE222:
.LBE221:
	.loc 23 152 42
	nop
.LBE218:
.LBE217:
	.loc 21 225 12 discriminator 1
	movq	%rax, -64(%rbp)
	.loc 21 227 13
	movq	-64(%rbp), %rax
	.loc 21 227 2
	cmpq	$15, %rax
	jbe	.L177
	.loc 21 229 13
	leaq	-64(%rbp), %rcx
	movq	-72(%rbp), %rax
	movl	$0, %edx
	movq	%rcx, %rsi
	movq	%rax, %rdi
	call	_ZNSt7__cxx1112basic_stringIcSt11char_traitsIcESaIcEE9_M_createERmm
	movq	%rax, %rdx
	.loc 21 229 13 is_stmt 0 discriminator 1
	movq	-72(%rbp), %rax
	movq	%rdx, %rsi
	movq	%rax, %rdi
	call	_ZNSt7__cxx1112basic_stringIcSt11char_traitsIcESaIcEE7_M_dataEPc
	.loc 21 230 17 is_stmt 1
	movq	-64(%rbp), %rdx
	movq	-72(%rbp), %rax
	movq	%rdx, %rsi
	movq	%rax, %rdi
	call	_ZNSt7__cxx1112basic_stringIcSt11char_traitsIcESaIcEE11_M_capacityEm
	jmp	.L178
.L177:
	movq	-72(%rbp), %rax
	movq	%rax, -24(%rbp)
.LBB223:
.LBB224:
.LBB225:
	.loc 15 351 32
	call	_ZSt21is_constant_evaluatedv
	.loc 15 351 2 discriminator 1
	testb	%al, %al
	je	.L183
.LBB226:
.LBB227:
	.loc 15 352 19
	movq	$0, -16(%rbp)
	.loc 15 352 4
	jmp	.L180
.L181:
	.loc 15 353 24
	movq	-24(%rbp), %rdx
	movq	-16(%rbp), %rax
	addq	%rdx, %rax
	addq	$16, %rax
	movb	$0, (%rax)
	.loc 15 352 4 discriminator 3
	addq	$1, -16(%rbp)
.L180:
	.loc 15 352 32 discriminator 1
	cmpq	$15, -16(%rbp)
	jbe	.L181
.L183:
.LBE227:
.LBE226:
.LBE225:
	.loc 15 355 7
	nop
.L178:
.LBE224:
.LBE223:
	.loc 21 245 4
	movq	-72(%rbp), %rdx
	leaq	-56(%rbp), %rax
	movq	%rdx, %rsi
	movq	%rax, %rdi
	call	_ZZNSt7__cxx1112basic_stringIcSt11char_traitsIcESaIcEE12_M_constructIPKcEEvT_S8_St20forward_iterator_tagEN6_GuardC1EPS4_
	.loc 21 247 21
	movq	-72(%rbp), %rax
	movq	%rax, %rdi
	call	_ZNKSt7__cxx1112basic_stringIcSt11char_traitsIcESaIcEE7_M_dataEv
	movq	%rax, %rcx
	.loc 21 247 21 is_stmt 0 discriminator 1
	movq	-88(%rbp), %rdx
	movq	-80(%rbp), %rax
	movq	%rax, %rsi
	movq	%rcx, %rdi
	call	_ZNSt7__cxx1112basic_stringIcSt11char_traitsIcESaIcEE13_S_copy_charsEPcPKcS7_
	.loc 21 249 21 is_stmt 1
	movq	$0, -56(%rbp)
	.loc 21 251 15
	movq	-64(%rbp), %rdx
	movq	-72(%rbp), %rax
	movq	%rdx, %rsi
	movq	%rax, %rdi
	call	_ZNSt7__cxx1112basic_stringIcSt11char_traitsIcESaIcEE13_M_set_lengthEm
	.loc 21 252 7
	leaq	-56(%rbp), %rax
	movq	%rax, %rdi
	call	_ZZNSt7__cxx1112basic_stringIcSt11char_traitsIcESaIcEE12_M_constructIPKcEEvT_S8_St20forward_iterator_tagEN6_GuardD1Ev
	movq	-8(%rbp), %rax
	subq	%fs:40, %rax
	je	.L182
	call	__stack_chk_fail@PLT
.L182:
	leave
	.cfi_def_cfa 7, 8
	ret
	.cfi_endproc
.LFE4616:
	.size	_ZNSt7__cxx1112basic_stringIcSt11char_traitsIcESaIcEE12_M_constructIPKcEEvT_S8_St20forward_iterator_tag, .-_ZNSt7__cxx1112basic_stringIcSt11char_traitsIcESaIcEE12_M_constructIPKcEEvT_S8_St20forward_iterator_tag
	.section	.text._ZNSt7__cxx1112basic_stringIjSt11char_traitsIjESaIjEE10_M_disposeEv,"axG",@progbits,_ZNSt7__cxx1112basic_stringIjSt11char_traitsIjESaIjEE10_M_disposeEv,comdat
	.align 2
	.weak	_ZNSt7__cxx1112basic_stringIjSt11char_traitsIjESaIjEE10_M_disposeEv
	.type	_ZNSt7__cxx1112basic_stringIjSt11char_traitsIjESaIjEE10_M_disposeEv, @function
_ZNSt7__cxx1112basic_stringIjSt11char_traitsIjESaIjEE10_M_disposeEv:
.LFB4688:
	.loc 15 280 7
	.cfi_startproc
	endbr64
	pushq	%rbp
	.cfi_def_cfa_offset 16
	.cfi_offset 6, -16
	movq	%rsp, %rbp
	.cfi_def_cfa_register 6
	subq	$16, %rsp
	movq	%rdi, -8(%rbp)
	.loc 15 282 18
	movq	-8(%rbp), %rax
	movq	%rax, %rdi
	call	_ZNKSt7__cxx1112basic_stringIjSt11char_traitsIjESaIjEE11_M_is_localEv
	.loc 15 282 18 is_stmt 0 discriminator 1
	xorl	$1, %eax
	.loc 15 282 2 is_stmt 1 discriminator 1
	testb	%al, %al
	je	.L186
	.loc 15 283 14
	movq	-8(%rbp), %rax
	movq	16(%rax), %rdx
	movq	-8(%rbp), %rax
	movq	%rdx, %rsi
	movq	%rax, %rdi
	call	_ZNSt7__cxx1112basic_stringIjSt11char_traitsIjESaIjEE10_M_destroyEm
.L186:
	.loc 15 284 7
	nop
	leave
	.cfi_def_cfa 7, 8
	ret
	.cfi_endproc
.LFE4688:
	.size	_ZNSt7__cxx1112basic_stringIjSt11char_traitsIjESaIjEE10_M_disposeEv, .-_ZNSt7__cxx1112basic_stringIjSt11char_traitsIjESaIjEE10_M_disposeEv
	.section	.text._ZNSt12_Vector_baseIN2sf6VertexESaIS1_EE12_Vector_implD2Ev,"axG",@progbits,_ZNSt12_Vector_baseIN2sf6VertexESaIS1_EE12_Vector_implD5Ev,comdat
	.align 2
	.weak	_ZNSt12_Vector_baseIN2sf6VertexESaIS1_EE12_Vector_implD2Ev
	.type	_ZNSt12_Vector_baseIN2sf6VertexESaIS1_EE12_Vector_implD2Ev, @function
_ZNSt12_Vector_baseIN2sf6VertexESaIS1_EE12_Vector_implD2Ev:
.LFB4692:
	.loc 18 133 14
	.cfi_startproc
	endbr64
	pushq	%rbp
	.cfi_def_cfa_offset 16
	.cfi_offset 6, -16
	movq	%rsp, %rbp
	.cfi_def_cfa_register 6
	movq	%rdi, -24(%rbp)
	movq	-24(%rbp), %rax
	movq	%rax, -8(%rbp)
.LBB228:
.LBB229:
.LBB230:
	.loc 13 184 31
	nop
.LBE230:
.LBE229:
.LBE228:
	.loc 18 133 14
	nop
	popq	%rbp
	.cfi_def_cfa 7, 8
	ret
	.cfi_endproc
.LFE4692:
	.size	_ZNSt12_Vector_baseIN2sf6VertexESaIS1_EE12_Vector_implD2Ev, .-_ZNSt12_Vector_baseIN2sf6VertexESaIS1_EE12_Vector_implD2Ev
	.weak	_ZNSt12_Vector_baseIN2sf6VertexESaIS1_EE12_Vector_implD1Ev
	.set	_ZNSt12_Vector_baseIN2sf6VertexESaIS1_EE12_Vector_implD1Ev,_ZNSt12_Vector_baseIN2sf6VertexESaIS1_EE12_Vector_implD2Ev
	.section	.text._ZNSt12_Vector_baseIN2sf6VertexESaIS1_EED2Ev,"axG",@progbits,_ZNSt12_Vector_baseIN2sf6VertexESaIS1_EED5Ev,comdat
	.align 2
	.weak	_ZNSt12_Vector_baseIN2sf6VertexESaIS1_EED2Ev
	.type	_ZNSt12_Vector_baseIN2sf6VertexESaIS1_EED2Ev, @function
_ZNSt12_Vector_baseIN2sf6VertexESaIS1_EED2Ev:
.LFB4694:
	.loc 18 367 7
	.cfi_startproc
	.cfi_personality 0x9b,DW.ref.__gxx_personality_v0
	.cfi_lsda 0x1b,.LLSDA4694
	endbr64
	pushq	%rbp
	.cfi_def_cfa_offset 16
	.cfi_offset 6, -16
	movq	%rsp, %rbp
	.cfi_def_cfa_register 6
	subq	$16, %rsp
	movq	%rdi, -8(%rbp)
.LBB231:
	.loc 18 370 17
	movq	-8(%rbp), %rax
	movq	16(%rax), %rdx
	.loc 18 370 45
	movq	-8(%rbp), %rax
	movq	(%rax), %rax
	.loc 18 370 35
	subq	%rax, %rdx
	sarq	$2, %rdx
	movabsq	$-3689348814741910323, %rax
	imulq	%rdx, %rax
	.loc 18 369 15
	movq	%rax, %rdx
	movq	-8(%rbp), %rax
	movq	(%rax), %rcx
	movq	-8(%rbp), %rax
	movq	%rcx, %rsi
	movq	%rax, %rdi
	call	_ZNSt12_Vector_baseIN2sf6VertexESaIS1_EE13_M_deallocateEPS1_m
	.loc 18 371 7
	movq	-8(%rbp), %rax
	movq	%rax, %rdi
	call	_ZNSt12_Vector_baseIN2sf6VertexESaIS1_EE12_Vector_implD1Ev
.LBE231:
	nop
	leave
	.cfi_def_cfa 7, 8
	ret
	.cfi_endproc
.LFE4694:
	.section	.gcc_except_table
.LLSDA4694:
	.byte	0xff
	.byte	0xff
	.byte	0x1
	.uleb128 .LLSDACSE4694-.LLSDACSB4694
.LLSDACSB4694:
.LLSDACSE4694:
	.section	.text._ZNSt12_Vector_baseIN2sf6VertexESaIS1_EED2Ev,"axG",@progbits,_ZNSt12_Vector_baseIN2sf6VertexESaIS1_EED5Ev,comdat
	.size	_ZNSt12_Vector_baseIN2sf6VertexESaIS1_EED2Ev, .-_ZNSt12_Vector_baseIN2sf6VertexESaIS1_EED2Ev
	.weak	_ZNSt12_Vector_baseIN2sf6VertexESaIS1_EED1Ev
	.set	_ZNSt12_Vector_baseIN2sf6VertexESaIS1_EED1Ev,_ZNSt12_Vector_baseIN2sf6VertexESaIS1_EED2Ev
	.section	.text._ZNSt12_Vector_baseIN2sf6VertexESaIS1_EE19_M_get_Tp_allocatorEv,"axG",@progbits,_ZNSt12_Vector_baseIN2sf6VertexESaIS1_EE19_M_get_Tp_allocatorEv,comdat
	.align 2
	.weak	_ZNSt12_Vector_baseIN2sf6VertexESaIS1_EE19_M_get_Tp_allocatorEv
	.type	_ZNSt12_Vector_baseIN2sf6VertexESaIS1_EE19_M_get_Tp_allocatorEv, @function
_ZNSt12_Vector_baseIN2sf6VertexESaIS1_EE19_M_get_Tp_allocatorEv:
.LFB4696:
	.loc 18 301 7
	.cfi_startproc
	endbr64
	pushq	%rbp
	.cfi_def_cfa_offset 16
	.cfi_offset 6, -16
	movq	%rsp, %rbp
	.cfi_def_cfa_register 6
	movq	%rdi, -8(%rbp)
	.loc 18 302 22
	movq	-8(%rbp), %rax
	.loc 18 302 31
	popq	%rbp
	.cfi_def_cfa 7, 8
	ret
	.cfi_endproc
.LFE4696:
	.size	_ZNSt12_Vector_baseIN2sf6VertexESaIS1_EE19_M_get_Tp_allocatorEv, .-_ZNSt12_Vector_baseIN2sf6VertexESaIS1_EE19_M_get_Tp_allocatorEv
	.section	.text._ZNSt19__ptr_traits_ptr_toIPccLb0EE10pointer_toERc,"axG",@progbits,_ZNSt19__ptr_traits_ptr_toIPccLb0EE10pointer_toERc,comdat
	.weak	_ZNSt19__ptr_traits_ptr_toIPccLb0EE10pointer_toERc
	.type	_ZNSt19__ptr_traits_ptr_toIPccLb0EE10pointer_toERc, @function
_ZNSt19__ptr_traits_ptr_toIPccLb0EE10pointer_toERc:
.LFB4701:
	.file 24 "/usr/include/c++/13/bits/ptr_traits.h"
	.loc 24 141 7
	.cfi_startproc
	endbr64
	pushq	%rbp
	.cfi_def_cfa_offset 16
	.cfi_offset 6, -16
	movq	%rsp, %rbp
	.cfi_def_cfa_register 6
	subq	$16, %rsp
	movq	%rdi, -8(%rbp)
	.loc 24 142 30
	movq	-8(%rbp), %rax
	movq	%rax, %rdi
	call	_ZSt9addressofIcEPT_RS0_
	.loc 24 142 37
	leave
	.cfi_def_cfa 7, 8
	ret
	.cfi_endproc
.LFE4701:
	.size	_ZNSt19__ptr_traits_ptr_toIPccLb0EE10pointer_toERc, .-_ZNSt19__ptr_traits_ptr_toIPccLb0EE10pointer_toERc
	.section	.rodata
.LC14:
	.string	"basic_string::_M_create"
	.section	.text._ZNSt7__cxx1112basic_stringIcSt11char_traitsIcESaIcEE9_M_createERmm,"axG",@progbits,_ZNSt7__cxx1112basic_stringIcSt11char_traitsIcESaIcEE9_M_createERmm,comdat
	.align 2
	.weak	_ZNSt7__cxx1112basic_stringIcSt11char_traitsIcESaIcEE9_M_createERmm
	.type	_ZNSt7__cxx1112basic_stringIcSt11char_traitsIcESaIcEE9_M_createERmm, @function
_ZNSt7__cxx1112basic_stringIcSt11char_traitsIcESaIcEE9_M_createERmm:
.LFB4705:
	.loc 21 138 5
	.cfi_startproc
	endbr64
	pushq	%rbp
	.cfi_def_cfa_offset 16
	.cfi_offset 6, -16
	movq	%rsp, %rbp
	.cfi_def_cfa_register 6
	pushq	%rbx
	subq	$40, %rsp
	.cfi_offset 3, -24
	movq	%rdi, -24(%rbp)
	movq	%rsi, -32(%rbp)
	movq	%rdx, -40(%rbp)
	.loc 21 143 22
	movq	-32(%rbp), %rax
	movq	(%rax), %rbx
	.loc 21 143 32
	movq	-24(%rbp), %rax
	movq	%rax, %rdi
	call	_ZNKSt7__cxx1112basic_stringIcSt11char_traitsIcESaIcEE8max_sizeEv
	.loc 21 143 22 discriminator 1
	cmpq	%rbx, %rax
	setb	%al
	.loc 21 143 7 discriminator 1
	testb	%al, %al
	je	.L194
	.loc 21 144 27
	leaq	.LC14(%rip), %rax
	movq	%rax, %rdi
	call	_ZSt20__throw_length_errorPKc@PLT
.L194:
	.loc 21 149 22
	movq	-32(%rbp), %rax
	movq	(%rax), %rax
	.loc 21 149 7
	cmpq	%rax, -40(%rbp)
	jnb	.L195
	.loc 21 149 53 discriminator 1
	movq	-32(%rbp), %rax
	movq	(%rax), %rdx
	.loc 21 149 57 discriminator 1
	movq	-40(%rbp), %rax
	addq	%rax, %rax
	.loc 21 149 39 discriminator 1
	cmpq	%rax, %rdx
	jnb	.L195
	.loc 21 151 19
	movq	-40(%rbp), %rax
	leaq	(%rax,%rax), %rdx
	.loc 21 151 15
	movq	-32(%rbp), %rax
	movq	%rdx, (%rax)
	.loc 21 153 19
	movq	-32(%rbp), %rax
	movq	(%rax), %rbx
	.loc 21 153 29
	movq	-24(%rbp), %rax
	movq	%rax, %rdi
	call	_ZNKSt7__cxx1112basic_stringIcSt11char_traitsIcESaIcEE8max_sizeEv
	.loc 21 153 19 discriminator 1
	cmpq	%rbx, %rax
	setb	%al
	.loc 21 153 4 discriminator 1
	testb	%al, %al
	je	.L195
	.loc 21 154 27
	movq	-24(%rbp), %rax
	movq	%rax, %rdi
	call	_ZNKSt7__cxx1112basic_stringIcSt11char_traitsIcESaIcEE8max_sizeEv
	.loc 21 154 17 discriminator 1
	movq	-32(%rbp), %rdx
	movq	%rax, (%rdx)
.L195:
	.loc 21 159 25
	movq	-32(%rbp), %rax
	movq	(%rax), %rax
	leaq	1(%rax), %rbx
	.loc 21 159 42
	movq	-24(%rbp), %rax
	movq	%rax, %rdi
	call	_ZNSt7__cxx1112basic_stringIcSt11char_traitsIcESaIcEE16_M_get_allocatorEv
	.loc 21 159 25 discriminator 1
	movq	%rbx, %rsi
	movq	%rax, %rdi
	call	_ZNSt7__cxx1112basic_stringIcSt11char_traitsIcESaIcEE11_S_allocateERS3_m
	.loc 21 160 5
	movq	-8(%rbp), %rbx
	leave
	.cfi_def_cfa 7, 8
	ret
	.cfi_endproc
.LFE4705:
	.size	_ZNSt7__cxx1112basic_stringIcSt11char_traitsIcESaIcEE9_M_createERmm, .-_ZNSt7__cxx1112basic_stringIcSt11char_traitsIcESaIcEE9_M_createERmm
	.section	.text._ZNSt7__cxx1112basic_stringIcSt11char_traitsIcESaIcEE10_M_destroyEm,"axG",@progbits,_ZNSt7__cxx1112basic_stringIcSt11char_traitsIcESaIcEE10_M_destroyEm,comdat
	.align 2
	.weak	_ZNSt7__cxx1112basic_stringIcSt11char_traitsIcESaIcEE10_M_destroyEm
	.type	_ZNSt7__cxx1112basic_stringIcSt11char_traitsIcESaIcEE10_M_destroyEm, @function
_ZNSt7__cxx1112basic_stringIcSt11char_traitsIcESaIcEE10_M_destroyEm:
.LFB4707:
	.loc 15 288 7
	.cfi_startproc
	endbr64
	pushq	%rbp
	.cfi_def_cfa_offset 16
	.cfi_offset 6, -16
	movq	%rsp, %rbp
	.cfi_def_cfa_register 6
	pushq	%r12
	pushq	%rbx
	subq	$64, %rsp
	.cfi_offset 12, -24
	.cfi_offset 3, -32
	movq	%rdi, -72(%rbp)
	movq	%rsi, -80(%rbp)
	.loc 15 289 34
	movq	-80(%rbp), %rax
	leaq	1(%rax), %r12
	movq	-72(%rbp), %rax
	movq	%rax, %rdi
	call	_ZNKSt7__cxx1112basic_stringIcSt11char_traitsIcESaIcEE7_M_dataEv
	movq	%rax, %rbx
	.loc 15 289 51 discriminator 1
	movq	-72(%rbp), %rax
	movq	%rax, %rdi
	call	_ZNSt7__cxx1112basic_stringIcSt11char_traitsIcESaIcEE16_M_get_allocatorEv
	movq	%rax, -64(%rbp)
	movq	%rbx, -56(%rbp)
	movq	%r12, -48(%rbp)
	movq	-64(%rbp), %rax
	movq	%rax, -40(%rbp)
	movq	-56(%rbp), %rax
	movq	%rax, -32(%rbp)
	movq	-48(%rbp), %rax
	movq	%rax, -24(%rbp)
.LBB232:
.LBB233:
.LBB234:
.LBB235:
	.loc 13 205 34
	call	_ZSt23__is_constant_evaluatedv
	.loc 13 205 2 discriminator 1
	testb	%al, %al
	je	.L198
	.loc 13 207 23
	movq	-32(%rbp), %rax
	movq	%rax, %rdi
	call	_ZdlPv@PLT
	.loc 13 208 6
	jmp	.L199
.L198:
	.loc 13 210 35
	movq	-24(%rbp), %rdx
	movq	-32(%rbp), %rcx
	movq	-40(%rbp), %rax
	movq	%rcx, %rsi
	movq	%rax, %rdi
	call	_ZNSt15__new_allocatorIcE10deallocateEPcm
.L199:
.LBE235:
.LBE234:
	.loc 19 517 35
	nop
.LBE233:
.LBE232:
	.loc 15 289 79
	nop
	addq	$64, %rsp
	popq	%rbx
	popq	%r12
	popq	%rbp
	.cfi_def_cfa 7, 8
	ret
	.cfi_endproc
.LFE4707:
	.size	_ZNSt7__cxx1112basic_stringIcSt11char_traitsIcESaIcEE10_M_destroyEm, .-_ZNSt7__cxx1112basic_stringIcSt11char_traitsIcESaIcEE10_M_destroyEm
	.section	.text._ZNKSt7__cxx1112basic_stringIcSt11char_traitsIcESaIcEE13_M_local_dataEv,"axG",@progbits,_ZNKSt7__cxx1112basic_stringIcSt11char_traitsIcESaIcEE13_M_local_dataEv,comdat
	.align 2
	.weak	_ZNKSt7__cxx1112basic_stringIcSt11char_traitsIcESaIcEE13_M_local_dataEv
	.type	_ZNKSt7__cxx1112basic_stringIcSt11char_traitsIcESaIcEE13_M_local_dataEv, @function
_ZNKSt7__cxx1112basic_stringIcSt11char_traitsIcESaIcEE13_M_local_dataEv:
.LFB4708:
	.loc 15 238 7
	.cfi_startproc
	endbr64
	pushq	%rbp
	.cfi_def_cfa_offset 16
	.cfi_offset 6, -16
	movq	%rsp, %rbp
	.cfi_def_cfa_register 6
	subq	$16, %rsp
	movq	%rdi, -8(%rbp)
	.loc 15 241 57
	movq	-8(%rbp), %rax
	addq	$16, %rax
	.loc 15 241 55
	movq	%rax, %rdi
	call	_ZNSt19__ptr_traits_ptr_toIPKcS0_Lb0EE10pointer_toERS0_
	.loc 15 245 7
	leave
	.cfi_def_cfa 7, 8
	ret
	.cfi_endproc
.LFE4708:
	.size	_ZNKSt7__cxx1112basic_stringIcSt11char_traitsIcESaIcEE13_M_local_dataEv, .-_ZNKSt7__cxx1112basic_stringIcSt11char_traitsIcESaIcEE13_M_local_dataEv
	.section	.text._ZNSt7__cxx1112basic_stringIcSt11char_traitsIcESaIcEE13_S_copy_charsEPcPKcS7_,"axG",@progbits,_ZNSt7__cxx1112basic_stringIcSt11char_traitsIcESaIcEE13_S_copy_charsEPcPKcS7_,comdat
	.weak	_ZNSt7__cxx1112basic_stringIcSt11char_traitsIcESaIcEE13_S_copy_charsEPcPKcS7_
	.type	_ZNSt7__cxx1112basic_stringIcSt11char_traitsIcESaIcEE13_S_copy_charsEPcPKcS7_, @function
_ZNSt7__cxx1112basic_stringIcSt11char_traitsIcESaIcEE13_S_copy_charsEPcPKcS7_:
.LFB4728:
	.loc 15 482 7
	.cfi_startproc
	.cfi_personality 0x9b,DW.ref.__gxx_personality_v0
	.cfi_lsda 0x1b,.LLSDA4728
	endbr64
	pushq	%rbp
	.cfi_def_cfa_offset 16
	.cfi_offset 6, -16
	movq	%rsp, %rbp
	.cfi_def_cfa_register 6
	subq	$32, %rsp
	movq	%rdi, -8(%rbp)
	movq	%rsi, -16(%rbp)
	movq	%rdx, -24(%rbp)
	.loc 15 484 33
	movq	-24(%rbp), %rax
	subq	-16(%rbp), %rax
	.loc 15 484 16
	movq	%rax, %rdx
	movq	-16(%rbp), %rcx
	movq	-8(%rbp), %rax
	movq	%rcx, %rsi
	movq	%rax, %rdi
	call	_ZNSt7__cxx1112basic_stringIcSt11char_traitsIcESaIcEE7_S_copyEPcPKcm
	.loc 15 484 42
	nop
	leave
	.cfi_def_cfa 7, 8
	ret
	.cfi_endproc
.LFE4728:
	.section	.gcc_except_table
.LLSDA4728:
	.byte	0xff
	.byte	0xff
	.byte	0x1
	.uleb128 .LLSDACSE4728-.LLSDACSB4728
.LLSDACSB4728:
.LLSDACSE4728:
	.section	.text._ZNSt7__cxx1112basic_stringIcSt11char_traitsIcESaIcEE13_S_copy_charsEPcPKcS7_,"axG",@progbits,_ZNSt7__cxx1112basic_stringIcSt11char_traitsIcESaIcEE13_S_copy_charsEPcPKcS7_,comdat
	.size	_ZNSt7__cxx1112basic_stringIcSt11char_traitsIcESaIcEE13_S_copy_charsEPcPKcS7_, .-_ZNSt7__cxx1112basic_stringIcSt11char_traitsIcESaIcEE13_S_copy_charsEPcPKcS7_
	.section	.text._ZNKSt7__cxx1112basic_stringIjSt11char_traitsIjESaIjEE11_M_is_localEv,"axG",@progbits,_ZNKSt7__cxx1112basic_stringIjSt11char_traitsIjESaIjEE11_M_is_localEv,comdat
	.align 2
	.weak	_ZNKSt7__cxx1112basic_stringIjSt11char_traitsIjESaIjEE11_M_is_localEv
	.type	_ZNKSt7__cxx1112basic_stringIjSt11char_traitsIjESaIjEE11_M_is_localEv, @function
_ZNKSt7__cxx1112basic_stringIjSt11char_traitsIjESaIjEE11_M_is_localEv:
.LFB4783:
	.loc 15 262 7
	.cfi_startproc
	endbr64
	pushq	%rbp
	.cfi_def_cfa_offset 16
	.cfi_offset 6, -16
	movq	%rsp, %rbp
	.cfi_def_cfa_register 6
	pushq	%rbx
	subq	$24, %rsp
	.cfi_offset 3, -24
	movq	%rdi, -24(%rbp)
	.loc 15 264 13
	movq	-24(%rbp), %rax
	movq	%rax, %rdi
	call	_ZNKSt7__cxx1112basic_stringIjSt11char_traitsIjESaIjEE7_M_dataEv
	movq	%rax, %rbx
	.loc 15 264 32 discriminator 1
	movq	-24(%rbp), %rax
	movq	%rax, %rdi
	call	_ZNKSt7__cxx1112basic_stringIjSt11char_traitsIjESaIjEE13_M_local_dataEv
	.loc 15 264 16 discriminator 2
	cmpq	%rax, %rbx
	sete	%al
	.loc 15 264 2 discriminator 2
	testb	%al, %al
	je	.L204
	.loc 15 266 10
	movq	-24(%rbp), %rax
	movq	8(%rax), %rax
	.loc 15 266 6
	cmpq	$3, %rax
	.loc 15 268 13
	movl	$1, %eax
	jmp	.L206
.L204:
	.loc 15 270 9
	movl	$0, %eax
.L206:
	.loc 15 271 7
	movq	-8(%rbp), %rbx
	leave
	.cfi_def_cfa 7, 8
	ret
	.cfi_endproc
.LFE4783:
	.size	_ZNKSt7__cxx1112basic_stringIjSt11char_traitsIjESaIjEE11_M_is_localEv, .-_ZNKSt7__cxx1112basic_stringIjSt11char_traitsIjESaIjEE11_M_is_localEv
	.section	.text._ZNSt7__cxx1112basic_stringIjSt11char_traitsIjESaIjEE10_M_destroyEm,"axG",@progbits,_ZNSt7__cxx1112basic_stringIjSt11char_traitsIjESaIjEE10_M_destroyEm,comdat
	.align 2
	.weak	_ZNSt7__cxx1112basic_stringIjSt11char_traitsIjESaIjEE10_M_destroyEm
	.type	_ZNSt7__cxx1112basic_stringIjSt11char_traitsIjESaIjEE10_M_destroyEm, @function
_ZNSt7__cxx1112basic_stringIjSt11char_traitsIjESaIjEE10_M_destroyEm:
.LFB4784:
	.loc 15 288 7
	.cfi_startproc
	endbr64
	pushq	%rbp
	.cfi_def_cfa_offset 16
	.cfi_offset 6, -16
	movq	%rsp, %rbp
	.cfi_def_cfa_register 6
	pushq	%r12
	pushq	%rbx
	subq	$64, %rsp
	.cfi_offset 12, -24
	.cfi_offset 3, -32
	movq	%rdi, -72(%rbp)
	movq	%rsi, -80(%rbp)
	.loc 15 289 34
	movq	-80(%rbp), %rax
	leaq	1(%rax), %r12
	movq	-72(%rbp), %rax
	movq	%rax, %rdi
	call	_ZNKSt7__cxx1112basic_stringIjSt11char_traitsIjESaIjEE7_M_dataEv
	movq	%rax, %rbx
	.loc 15 289 51 discriminator 1
	movq	-72(%rbp), %rax
	movq	%rax, %rdi
	call	_ZNSt7__cxx1112basic_stringIjSt11char_traitsIjESaIjEE16_M_get_allocatorEv
	movq	%rax, -64(%rbp)
	movq	%rbx, -56(%rbp)
	movq	%r12, -48(%rbp)
	movq	-64(%rbp), %rax
	movq	%rax, -40(%rbp)
	movq	-56(%rbp), %rax
	movq	%rax, -32(%rbp)
	movq	-48(%rbp), %rax
	movq	%rax, -24(%rbp)
.LBB236:
.LBB237:
.LBB238:
.LBB239:
	.loc 13 205 34
	call	_ZSt23__is_constant_evaluatedv
	.loc 13 205 2 discriminator 1
	testb	%al, %al
	je	.L208
	.loc 13 207 23
	movq	-32(%rbp), %rax
	movq	%rax, %rdi
	call	_ZdlPv@PLT
	.loc 13 208 6
	jmp	.L209
.L208:
	.loc 13 210 35
	movq	-24(%rbp), %rdx
	movq	-32(%rbp), %rcx
	movq	-40(%rbp), %rax
	movq	%rcx, %rsi
	movq	%rax, %rdi
	call	_ZNSt15__new_allocatorIjE10deallocateEPjm
.L209:
.LBE239:
.LBE238:
	.loc 19 517 35
	nop
.LBE237:
.LBE236:
	.loc 15 289 79
	nop
	addq	$64, %rsp
	popq	%rbx
	popq	%r12
	popq	%rbp
	.cfi_def_cfa 7, 8
	ret
	.cfi_endproc
.LFE4784:
	.size	_ZNSt7__cxx1112basic_stringIjSt11char_traitsIjESaIjEE10_M_destroyEm, .-_ZNSt7__cxx1112basic_stringIjSt11char_traitsIjESaIjEE10_M_destroyEm
	.section	.text._ZNSt12_Vector_baseIN2sf6VertexESaIS1_EE13_M_deallocateEPS1_m,"axG",@progbits,_ZNSt12_Vector_baseIN2sf6VertexESaIS1_EE13_M_deallocateEPS1_m,comdat
	.align 2
	.weak	_ZNSt12_Vector_baseIN2sf6VertexESaIS1_EE13_M_deallocateEPS1_m
	.type	_ZNSt12_Vector_baseIN2sf6VertexESaIS1_EE13_M_deallocateEPS1_m, @function
_ZNSt12_Vector_baseIN2sf6VertexESaIS1_EE13_M_deallocateEPS1_m:
.LFB4789:
	.loc 18 386 7
	.cfi_startproc
	endbr64
	pushq	%rbp
	.cfi_def_cfa_offset 16
	.cfi_offset 6, -16
	movq	%rsp, %rbp
	.cfi_def_cfa_register 6
	subq	$80, %rsp
	movq	%rdi, -56(%rbp)
	movq	%rsi, -64(%rbp)
	movq	%rdx, -72(%rbp)
	.loc 18 389 2
	cmpq	$0, -64(%rbp)
	je	.L214
	.loc 18 390 20
	movq	-56(%rbp), %rax
	movq	%rax, -48(%rbp)
	movq	-64(%rbp), %rax
	movq	%rax, -40(%rbp)
	movq	-72(%rbp), %rax
	movq	%rax, -32(%rbp)
	movq	-48(%rbp), %rax
	movq	%rax, -24(%rbp)
	movq	-40(%rbp), %rax
	movq	%rax, -16(%rbp)
	movq	-32(%rbp), %rax
	movq	%rax, -8(%rbp)
.LBB240:
.LBB241:
.LBB242:
.LBB243:
	.loc 13 205 34
	call	_ZSt23__is_constant_evaluatedv
	.loc 13 205 2 discriminator 1
	testb	%al, %al
	je	.L212
	.loc 13 207 23
	movq	-16(%rbp), %rax
	movq	%rax, %rdi
	call	_ZdlPv@PLT
	.loc 13 208 6
	jmp	.L213
.L212:
	.loc 13 210 35
	movq	-8(%rbp), %rdx
	movq	-16(%rbp), %rcx
	movq	-24(%rbp), %rax
	movq	%rcx, %rsi
	movq	%rax, %rdi
	call	_ZNSt15__new_allocatorIN2sf6VertexEE10deallocateEPS1_m
.L213:
.LBE243:
.LBE242:
	.loc 19 517 35
	nop
.L214:
.LBE241:
.LBE240:
	.loc 18 391 7
	nop
	leave
	.cfi_def_cfa 7, 8
	ret
	.cfi_endproc
.LFE4789:
	.size	_ZNSt12_Vector_baseIN2sf6VertexESaIS1_EE13_M_deallocateEPS1_m, .-_ZNSt12_Vector_baseIN2sf6VertexESaIS1_EE13_M_deallocateEPS1_m
	.section	.text._ZSt8_DestroyIPN2sf6VertexEEvT_S3_,"axG",@progbits,_ZSt8_DestroyIPN2sf6VertexEEvT_S3_,comdat
	.weak	_ZSt8_DestroyIPN2sf6VertexEEvT_S3_
	.type	_ZSt8_DestroyIPN2sf6VertexEEvT_S3_, @function
_ZSt8_DestroyIPN2sf6VertexEEvT_S3_:
.LFB4790:
	.loc 14 182 5
	.cfi_startproc
	endbr64
	pushq	%rbp
	.cfi_def_cfa_offset 16
	.cfi_offset 6, -16
	movq	%rsp, %rbp
	.cfi_def_cfa_register 6
	subq	$16, %rsp
	movq	%rdi, -8(%rbp)
	movq	%rsi, -16(%rbp)
	.loc 14 192 39
	call	_ZSt23__is_constant_evaluatedv
	.loc 14 192 7 discriminator 1
	testb	%al, %al
	je	.L216
	.loc 14 193 44
	movq	-16(%rbp), %rdx
	movq	-8(%rbp), %rax
	movq	%rdx, %rsi
	movq	%rax, %rdi
	call	_ZNSt12_Destroy_auxILb0EE9__destroyIPN2sf6VertexEEEvT_S5_
	.loc 14 193 60
	jmp	.L215
.L216:
	.loc 14 196 11
	movq	-16(%rbp), %rdx
	movq	-8(%rbp), %rax
	movq	%rdx, %rsi
	movq	%rax, %rdi
	call	_ZNSt12_Destroy_auxILb1EE9__destroyIPN2sf6VertexEEEvT_S5_
.L215:
	.loc 14 197 5
	leave
	.cfi_def_cfa 7, 8
	ret
	.cfi_endproc
.LFE4790:
	.size	_ZSt8_DestroyIPN2sf6VertexEEvT_S3_, .-_ZSt8_DestroyIPN2sf6VertexEEvT_S3_
	.section	.text._ZSt9addressofIcEPT_RS0_,"axG",@progbits,_ZSt9addressofIcEPT_RS0_,comdat
	.weak	_ZSt9addressofIcEPT_RS0_
	.type	_ZSt9addressofIcEPT_RS0_, @function
_ZSt9addressofIcEPT_RS0_:
.LFB4792:
	.loc 20 138 5
	.cfi_startproc
	endbr64
	pushq	%rbp
	.cfi_def_cfa_offset 16
	.cfi_offset 6, -16
	movq	%rsp, %rbp
	.cfi_def_cfa_register 6
	subq	$16, %rsp
	movq	%rdi, -8(%rbp)
	.loc 20 139 30
	movq	-8(%rbp), %rax
	movq	%rax, %rdi
	call	_ZSt11__addressofIcEPT_RS0_
	.loc 20 139 37
	leave
	.cfi_def_cfa 7, 8
	ret
	.cfi_endproc
.LFE4792:
	.size	_ZSt9addressofIcEPT_RS0_, .-_ZSt9addressofIcEPT_RS0_
	.section	.text._ZNKSt7__cxx1112basic_stringIcSt11char_traitsIcESaIcEE8max_sizeEv,"axG",@progbits,_ZNKSt7__cxx1112basic_stringIcSt11char_traitsIcESaIcEE8max_sizeEv,comdat
	.align 2
	.weak	_ZNKSt7__cxx1112basic_stringIcSt11char_traitsIcESaIcEE8max_sizeEv
	.type	_ZNKSt7__cxx1112basic_stringIcSt11char_traitsIcESaIcEE8max_sizeEv, @function
_ZNKSt7__cxx1112basic_stringIcSt11char_traitsIcESaIcEE8max_sizeEv:
.LFB4796:
	.loc 15 1084 7
	.cfi_startproc
	endbr64
	pushq	%rbp
	.cfi_def_cfa_offset 16
	.cfi_offset 6, -16
	movq	%rsp, %rbp
	.cfi_def_cfa_register 6
	subq	$32, %rsp
	movq	%rdi, -24(%rbp)
	.loc 15 1085 57
	movq	-24(%rbp), %rax
	movq	%rax, %rdi
	call	_ZNKSt7__cxx1112basic_stringIcSt11char_traitsIcESaIcEE16_M_get_allocatorEv
	movq	%rax, -8(%rbp)
.LBB244:
.LBB245:
	.loc 19 576 39
	movq	$-1, %rax
.LBE245:
.LBE244:
	.loc 15 1085 61 discriminator 2
	subq	$1, %rax
	.loc 15 1085 68 discriminator 2
	shrq	%rax
	.loc 15 1085 71
	leave
	.cfi_def_cfa 7, 8
	ret
	.cfi_endproc
.LFE4796:
	.size	_ZNKSt7__cxx1112basic_stringIcSt11char_traitsIcESaIcEE8max_sizeEv, .-_ZNKSt7__cxx1112basic_stringIcSt11char_traitsIcESaIcEE8max_sizeEv
	.section	.text._ZNSt7__cxx1112basic_stringIcSt11char_traitsIcESaIcEE11_S_allocateERS3_m,"axG",@progbits,_ZNSt7__cxx1112basic_stringIcSt11char_traitsIcESaIcEE11_S_allocateERS3_m,comdat
	.weak	_ZNSt7__cxx1112basic_stringIcSt11char_traitsIcESaIcEE11_S_allocateERS3_m
	.type	_ZNSt7__cxx1112basic_stringIcSt11char_traitsIcESaIcEE11_S_allocateERS3_m, @function
_ZNSt7__cxx1112basic_stringIcSt11char_traitsIcESaIcEE11_S_allocateERS3_m:
.LFB4797:
	.loc 15 124 7
	.cfi_startproc
	endbr64
	pushq	%rbp
	.cfi_def_cfa_offset 16
	.cfi_offset 6, -16
	movq	%rsp, %rbp
	.cfi_def_cfa_register 6
	subq	$64, %rsp
	movq	%rdi, -56(%rbp)
	movq	%rsi, -64(%rbp)
	.loc 15 124 7
	movq	%fs:40, %rax
	movq	%rax, -8(%rbp)
	xorl	%eax, %eax
	movq	-56(%rbp), %rax
	movq	%rax, -32(%rbp)
	movq	-64(%rbp), %rax
	movq	%rax, -24(%rbp)
	movq	-32(%rbp), %rax
	movq	%rax, -16(%rbp)
	movq	-24(%rbp), %rax
	movq	%rax, -48(%rbp)
.LBB246:
.LBB247:
.LBB248:
.LBB249:
	.loc 13 191 34
	call	_ZSt23__is_constant_evaluatedv
	.loc 13 191 2 discriminator 1
	testb	%al, %al
	je	.L224
	.loc 13 193 32
	movq	-48(%rbp), %rax
	movq	%rax, -48(%rbp)
	movl	$0, %eax
	andl	$1, %eax
	.loc 13 193 6
	testb	%al, %al
	je	.L225
	.loc 13 194 41
	movq	-8(%rbp), %rax
	subq	%fs:40, %rax
	je	.L226
	call	__stack_chk_fail@PLT
.L226:
	call	_ZSt28__throw_bad_array_new_lengthv@PLT
.L225:
	.loc 13 195 45
	movq	-48(%rbp), %rax
	movq	%rax, %rdi
	call	_Znwm@PLT
	.loc 13 195 50
	jmp	.L227
.L224:
	.loc 13 198 40
	movq	-48(%rbp), %rcx
	movq	-16(%rbp), %rax
	movl	$0, %edx
	movq	%rcx, %rsi
	movq	%rax, %rdi
	call	_ZNSt15__new_allocatorIcE8allocateEmPKv
	.loc 13 198 47
	nop
.L227:
.LBE249:
.LBE248:
	.loc 19 482 32
	nop
.LBE247:
.LBE246:
	.loc 15 126 39 discriminator 1
	movq	%rax, -40(%rbp)
	.loc 15 136 9
	movq	-40(%rbp), %rax
	.loc 15 137 7
	movq	-8(%rbp), %rdx
	subq	%fs:40, %rdx
	je	.L230
	call	__stack_chk_fail@PLT
.L230:
	leave
	.cfi_def_cfa 7, 8
	ret
	.cfi_endproc
.LFE4797:
	.size	_ZNSt7__cxx1112basic_stringIcSt11char_traitsIcESaIcEE11_S_allocateERS3_m, .-_ZNSt7__cxx1112basic_stringIcSt11char_traitsIcESaIcEE11_S_allocateERS3_m
	.section	.text._ZNSt19__ptr_traits_ptr_toIPKcS0_Lb0EE10pointer_toERS0_,"axG",@progbits,_ZNSt19__ptr_traits_ptr_toIPKcS0_Lb0EE10pointer_toERS0_,comdat
	.weak	_ZNSt19__ptr_traits_ptr_toIPKcS0_Lb0EE10pointer_toERS0_
	.type	_ZNSt19__ptr_traits_ptr_toIPKcS0_Lb0EE10pointer_toERS0_, @function
_ZNSt19__ptr_traits_ptr_toIPKcS0_Lb0EE10pointer_toERS0_:
.LFB4799:
	.loc 24 141 7
	.cfi_startproc
	endbr64
	pushq	%rbp
	.cfi_def_cfa_offset 16
	.cfi_offset 6, -16
	movq	%rsp, %rbp
	.cfi_def_cfa_register 6
	subq	$16, %rsp
	movq	%rdi, -8(%rbp)
	.loc 24 142 30
	movq	-8(%rbp), %rax
	movq	%rax, %rdi
	call	_ZSt9addressofIKcEPT_RS1_
	.loc 24 142 37
	leave
	.cfi_def_cfa 7, 8
	ret
	.cfi_endproc
.LFE4799:
	.size	_ZNSt19__ptr_traits_ptr_toIPKcS0_Lb0EE10pointer_toERS0_, .-_ZNSt19__ptr_traits_ptr_toIPKcS0_Lb0EE10pointer_toERS0_
	.section	.text._ZNSt7__cxx1112basic_stringIcSt11char_traitsIcESaIcEE7_S_copyEPcPKcm,"axG",@progbits,_ZNSt7__cxx1112basic_stringIcSt11char_traitsIcESaIcEE7_S_copyEPcPKcm,comdat
	.weak	_ZNSt7__cxx1112basic_stringIcSt11char_traitsIcESaIcEE7_S_copyEPcPKcm
	.type	_ZNSt7__cxx1112basic_stringIcSt11char_traitsIcESaIcEE7_S_copyEPcPKcm, @function
_ZNSt7__cxx1112basic_stringIcSt11char_traitsIcESaIcEE7_S_copyEPcPKcm:
.LFB4809:
	.loc 15 425 7
	.cfi_startproc
	endbr64
	pushq	%rbp
	.cfi_def_cfa_offset 16
	.cfi_offset 6, -16
	movq	%rsp, %rbp
	.cfi_def_cfa_register 6
	subq	$32, %rsp
	movq	%rdi, -8(%rbp)
	movq	%rsi, -16(%rbp)
	movq	%rdx, -24(%rbp)
	.loc 15 427 2
	cmpq	$1, -24(%rbp)
	jne	.L234
	.loc 15 428 23
	movq	-16(%rbp), %rdx
	movq	-8(%rbp), %rax
	movq	%rdx, %rsi
	movq	%rax, %rdi
	call	_ZNSt11char_traitsIcE6assignERcRKc
	.loc 15 431 7
	jmp	.L236
.L234:
	.loc 15 430 21
	movq	-24(%rbp), %rdx
	movq	-16(%rbp), %rcx
	movq	-8(%rbp), %rax
	movq	%rcx, %rsi
	movq	%rax, %rdi
	call	_ZNSt11char_traitsIcE4copyEPcPKcm
.L236:
	.loc 15 431 7
	nop
	leave
	.cfi_def_cfa 7, 8
	ret
	.cfi_endproc
.LFE4809:
	.size	_ZNSt7__cxx1112basic_stringIcSt11char_traitsIcESaIcEE7_S_copyEPcPKcm, .-_ZNSt7__cxx1112basic_stringIcSt11char_traitsIcESaIcEE7_S_copyEPcPKcm
	.section	.text._ZNKSt7__cxx1112basic_stringIjSt11char_traitsIjESaIjEE7_M_dataEv,"axG",@progbits,_ZNKSt7__cxx1112basic_stringIjSt11char_traitsIjESaIjEE7_M_dataEv,comdat
	.align 2
	.weak	_ZNKSt7__cxx1112basic_stringIjSt11char_traitsIjESaIjEE7_M_dataEv
	.type	_ZNKSt7__cxx1112basic_stringIjSt11char_traitsIjESaIjEE7_M_dataEv, @function
_ZNKSt7__cxx1112basic_stringIjSt11char_traitsIjESaIjEE7_M_dataEv:
.LFB4862:
	.loc 15 222 7
	.cfi_startproc
	endbr64
	pushq	%rbp
	.cfi_def_cfa_offset 16
	.cfi_offset 6, -16
	movq	%rsp, %rbp
	.cfi_def_cfa_register 6
	movq	%rdi, -8(%rbp)
	.loc 15 223 28
	movq	-8(%rbp), %rax
	movq	(%rax), %rax
	.loc 15 223 34
	popq	%rbp
	.cfi_def_cfa 7, 8
	ret
	.cfi_endproc
.LFE4862:
	.size	_ZNKSt7__cxx1112basic_stringIjSt11char_traitsIjESaIjEE7_M_dataEv, .-_ZNKSt7__cxx1112basic_stringIjSt11char_traitsIjESaIjEE7_M_dataEv
	.section	.text._ZNKSt7__cxx1112basic_stringIjSt11char_traitsIjESaIjEE13_M_local_dataEv,"axG",@progbits,_ZNKSt7__cxx1112basic_stringIjSt11char_traitsIjESaIjEE13_M_local_dataEv,comdat
	.align 2
	.weak	_ZNKSt7__cxx1112basic_stringIjSt11char_traitsIjESaIjEE13_M_local_dataEv
	.type	_ZNKSt7__cxx1112basic_stringIjSt11char_traitsIjESaIjEE13_M_local_dataEv, @function
_ZNKSt7__cxx1112basic_stringIjSt11char_traitsIjESaIjEE13_M_local_dataEv:
.LFB4863:
	.loc 15 238 7
	.cfi_startproc
	endbr64
	pushq	%rbp
	.cfi_def_cfa_offset 16
	.cfi_offset 6, -16
	movq	%rsp, %rbp
	.cfi_def_cfa_register 6
	subq	$16, %rsp
	movq	%rdi, -8(%rbp)
	.loc 15 241 57
	movq	-8(%rbp), %rax
	addq	$16, %rax
	.loc 15 241 55
	movq	%rax, %rdi
	call	_ZNSt19__ptr_traits_ptr_toIPKjS0_Lb0EE10pointer_toERS0_
	.loc 15 245 7
	leave
	.cfi_def_cfa 7, 8
	ret
	.cfi_endproc
.LFE4863:
	.size	_ZNKSt7__cxx1112basic_stringIjSt11char_traitsIjESaIjEE13_M_local_dataEv, .-_ZNKSt7__cxx1112basic_stringIjSt11char_traitsIjESaIjEE13_M_local_dataEv
	.section	.text._ZNSt7__cxx1112basic_stringIjSt11char_traitsIjESaIjEE16_M_get_allocatorEv,"axG",@progbits,_ZNSt7__cxx1112basic_stringIjSt11char_traitsIjESaIjEE16_M_get_allocatorEv,comdat
	.align 2
	.weak	_ZNSt7__cxx1112basic_stringIjSt11char_traitsIjESaIjEE16_M_get_allocatorEv
	.type	_ZNSt7__cxx1112basic_stringIjSt11char_traitsIjESaIjEE16_M_get_allocatorEv, @function
_ZNSt7__cxx1112basic_stringIjSt11char_traitsIjESaIjEE16_M_get_allocatorEv:
.LFB4864:
	.loc 15 336 7
	.cfi_startproc
	endbr64
	pushq	%rbp
	.cfi_def_cfa_offset 16
	.cfi_offset 6, -16
	movq	%rsp, %rbp
	.cfi_def_cfa_register 6
	movq	%rdi, -8(%rbp)
	.loc 15 337 16
	movq	-8(%rbp), %rax
	.loc 15 337 29
	popq	%rbp
	.cfi_def_cfa 7, 8
	ret
	.cfi_endproc
.LFE4864:
	.size	_ZNSt7__cxx1112basic_stringIjSt11char_traitsIjESaIjEE16_M_get_allocatorEv, .-_ZNSt7__cxx1112basic_stringIjSt11char_traitsIjESaIjEE16_M_get_allocatorEv
	.section	.text._ZNSt12_Destroy_auxILb0EE9__destroyIPN2sf6VertexEEEvT_S5_,"axG",@progbits,_ZNSt12_Destroy_auxILb0EE9__destroyIPN2sf6VertexEEEvT_S5_,comdat
	.weak	_ZNSt12_Destroy_auxILb0EE9__destroyIPN2sf6VertexEEEvT_S5_
	.type	_ZNSt12_Destroy_auxILb0EE9__destroyIPN2sf6VertexEEEvT_S5_, @function
_ZNSt12_Destroy_auxILb0EE9__destroyIPN2sf6VertexEEEvT_S5_:
.LFB4867:
	.loc 14 160 2
	.cfi_startproc
	endbr64
	pushq	%rbp
	.cfi_def_cfa_offset 16
	.cfi_offset 6, -16
	movq	%rsp, %rbp
	.cfi_def_cfa_register 6
	subq	$16, %rsp
	movq	%rdi, -8(%rbp)
	movq	%rsi, -16(%rbp)
	.loc 14 162 4
	jmp	.L244
.L245:
	.loc 14 163 19
	movq	-8(%rbp), %rax
	movq	%rax, %rdi
	call	_ZSt11__addressofIN2sf6VertexEEPT_RS2_
	.loc 14 163 19 is_stmt 0 discriminator 1
	movq	%rax, %rdi
	call	_ZSt8_DestroyIN2sf6VertexEEvPT_
	.loc 14 162 4 is_stmt 1 discriminator 2
	addq	$20, -8(%rbp)
.L244:
	.loc 14 162 19 discriminator 1
	movq	-8(%rbp), %rax
	cmpq	-16(%rbp), %rax
	jne	.L245
	.loc 14 164 2
	nop
	nop
	leave
	.cfi_def_cfa 7, 8
	ret
	.cfi_endproc
.LFE4867:
	.size	_ZNSt12_Destroy_auxILb0EE9__destroyIPN2sf6VertexEEEvT_S5_, .-_ZNSt12_Destroy_auxILb0EE9__destroyIPN2sf6VertexEEEvT_S5_
	.section	.text._ZNSt12_Destroy_auxILb1EE9__destroyIPN2sf6VertexEEEvT_S5_,"axG",@progbits,_ZNSt12_Destroy_auxILb1EE9__destroyIPN2sf6VertexEEEvT_S5_,comdat
	.weak	_ZNSt12_Destroy_auxILb1EE9__destroyIPN2sf6VertexEEEvT_S5_
	.type	_ZNSt12_Destroy_auxILb1EE9__destroyIPN2sf6VertexEEEvT_S5_, @function
_ZNSt12_Destroy_auxILb1EE9__destroyIPN2sf6VertexEEEvT_S5_:
.LFB4868:
	.loc 14 172 9
	.cfi_startproc
	endbr64
	pushq	%rbp
	.cfi_def_cfa_offset 16
	.cfi_offset 6, -16
	movq	%rsp, %rbp
	.cfi_def_cfa_register 6
	movq	%rdi, -8(%rbp)
	movq	%rsi, -16(%rbp)
	.loc 14 172 57
	nop
	popq	%rbp
	.cfi_def_cfa 7, 8
	ret
	.cfi_endproc
.LFE4868:
	.size	_ZNSt12_Destroy_auxILb1EE9__destroyIPN2sf6VertexEEEvT_S5_, .-_ZNSt12_Destroy_auxILb1EE9__destroyIPN2sf6VertexEEEvT_S5_
	.section	.text._ZSt11__addressofIcEPT_RS0_,"axG",@progbits,_ZSt11__addressofIcEPT_RS0_,comdat
	.weak	_ZSt11__addressofIcEPT_RS0_
	.type	_ZSt11__addressofIcEPT_RS0_, @function
_ZSt11__addressofIcEPT_RS0_:
.LFB4869:
	.loc 20 51 5
	.cfi_startproc
	endbr64
	pushq	%rbp
	.cfi_def_cfa_offset 16
	.cfi_offset 6, -16
	movq	%rsp, %rbp
	.cfi_def_cfa_register 6
	movq	%rdi, -8(%rbp)
	.loc 20 52 37
	movq	-8(%rbp), %rax
	.loc 20 52 40
	popq	%rbp
	.cfi_def_cfa 7, 8
	ret
	.cfi_endproc
.LFE4869:
	.size	_ZSt11__addressofIcEPT_RS0_, .-_ZSt11__addressofIcEPT_RS0_
	.section	.text._ZNKSt7__cxx1112basic_stringIcSt11char_traitsIcESaIcEE16_M_get_allocatorEv,"axG",@progbits,_ZNKSt7__cxx1112basic_stringIcSt11char_traitsIcESaIcEE16_M_get_allocatorEv,comdat
	.align 2
	.weak	_ZNKSt7__cxx1112basic_stringIcSt11char_traitsIcESaIcEE16_M_get_allocatorEv
	.type	_ZNKSt7__cxx1112basic_stringIcSt11char_traitsIcESaIcEE16_M_get_allocatorEv, @function
_ZNKSt7__cxx1112basic_stringIcSt11char_traitsIcESaIcEE16_M_get_allocatorEv:
.LFB4870:
	.loc 15 341 7
	.cfi_startproc
	endbr64
	pushq	%rbp
	.cfi_def_cfa_offset 16
	.cfi_offset 6, -16
	movq	%rsp, %rbp
	.cfi_def_cfa_register 6
	movq	%rdi, -8(%rbp)
	.loc 15 342 16
	movq	-8(%rbp), %rax
	.loc 15 342 29
	popq	%rbp
	.cfi_def_cfa 7, 8
	ret
	.cfi_endproc
.LFE4870:
	.size	_ZNKSt7__cxx1112basic_stringIcSt11char_traitsIcESaIcEE16_M_get_allocatorEv, .-_ZNKSt7__cxx1112basic_stringIcSt11char_traitsIcESaIcEE16_M_get_allocatorEv
	.section	.text._ZSt9addressofIKcEPT_RS1_,"axG",@progbits,_ZSt9addressofIKcEPT_RS1_,comdat
	.weak	_ZSt9addressofIKcEPT_RS1_
	.type	_ZSt9addressofIKcEPT_RS1_, @function
_ZSt9addressofIKcEPT_RS1_:
.LFB4874:
	.loc 20 138 5
	.cfi_startproc
	endbr64
	pushq	%rbp
	.cfi_def_cfa_offset 16
	.cfi_offset 6, -16
	movq	%rsp, %rbp
	.cfi_def_cfa_register 6
	subq	$16, %rsp
	movq	%rdi, -8(%rbp)
	.loc 20 139 30
	movq	-8(%rbp), %rax
	movq	%rax, %rdi
	call	_ZSt11__addressofIKcEPT_RS1_
	.loc 20 139 37
	leave
	.cfi_def_cfa 7, 8
	ret
	.cfi_endproc
.LFE4874:
	.size	_ZSt9addressofIKcEPT_RS1_, .-_ZSt9addressofIKcEPT_RS1_
	.section	.text._ZNSt19__ptr_traits_ptr_toIPKjS0_Lb0EE10pointer_toERS0_,"axG",@progbits,_ZNSt19__ptr_traits_ptr_toIPKjS0_Lb0EE10pointer_toERS0_,comdat
	.weak	_ZNSt19__ptr_traits_ptr_toIPKjS0_Lb0EE10pointer_toERS0_
	.type	_ZNSt19__ptr_traits_ptr_toIPKjS0_Lb0EE10pointer_toERS0_, @function
_ZNSt19__ptr_traits_ptr_toIPKjS0_Lb0EE10pointer_toERS0_:
.LFB4906:
	.loc 24 141 7
	.cfi_startproc
	endbr64
	pushq	%rbp
	.cfi_def_cfa_offset 16
	.cfi_offset 6, -16
	movq	%rsp, %rbp
	.cfi_def_cfa_register 6
	subq	$16, %rsp
	movq	%rdi, -8(%rbp)
	.loc 24 142 30
	movq	-8(%rbp), %rax
	movq	%rax, %rdi
	call	_ZSt9addressofIKjEPT_RS1_
	.loc 24 142 37
	leave
	.cfi_def_cfa 7, 8
	ret
	.cfi_endproc
.LFE4906:
	.size	_ZNSt19__ptr_traits_ptr_toIPKjS0_Lb0EE10pointer_toERS0_, .-_ZNSt19__ptr_traits_ptr_toIPKjS0_Lb0EE10pointer_toERS0_
	.section	.text._ZSt11__addressofIN2sf6VertexEEPT_RS2_,"axG",@progbits,_ZSt11__addressofIN2sf6VertexEEPT_RS2_,comdat
	.weak	_ZSt11__addressofIN2sf6VertexEEPT_RS2_
	.type	_ZSt11__addressofIN2sf6VertexEEPT_RS2_, @function
_ZSt11__addressofIN2sf6VertexEEPT_RS2_:
.LFB4909:
	.loc 20 51 5
	.cfi_startproc
	endbr64
	pushq	%rbp
	.cfi_def_cfa_offset 16
	.cfi_offset 6, -16
	movq	%rsp, %rbp
	.cfi_def_cfa_register 6
	movq	%rdi, -8(%rbp)
	.loc 20 52 37
	movq	-8(%rbp), %rax
	.loc 20 52 40
	popq	%rbp
	.cfi_def_cfa 7, 8
	ret
	.cfi_endproc
.LFE4909:
	.size	_ZSt11__addressofIN2sf6VertexEEPT_RS2_, .-_ZSt11__addressofIN2sf6VertexEEPT_RS2_
	.section	.text._ZSt8_DestroyIN2sf6VertexEEvPT_,"axG",@progbits,_ZSt8_DestroyIN2sf6VertexEEvPT_,comdat
	.weak	_ZSt8_DestroyIN2sf6VertexEEvPT_
	.type	_ZSt8_DestroyIN2sf6VertexEEvPT_, @function
_ZSt8_DestroyIN2sf6VertexEEvPT_:
.LFB4910:
	.loc 14 146 5
	.cfi_startproc
	endbr64
	pushq	%rbp
	.cfi_def_cfa_offset 16
	.cfi_offset 6, -16
	movq	%rsp, %rbp
	.cfi_def_cfa_register 6
	subq	$16, %rsp
	movq	%rdi, -8(%rbp)
	.loc 14 149 22
	movq	-8(%rbp), %rax
	movq	%rax, %rdi
	call	_ZSt10destroy_atIN2sf6VertexEEvPT_
	.loc 14 153 5
	nop
	leave
	.cfi_def_cfa 7, 8
	ret
	.cfi_endproc
.LFE4910:
	.size	_ZSt8_DestroyIN2sf6VertexEEvPT_, .-_ZSt8_DestroyIN2sf6VertexEEvPT_
	.section	.text._ZNSt15__new_allocatorIcE10deallocateEPcm,"axG",@progbits,_ZNSt15__new_allocatorIcE10deallocateEPcm,comdat
	.align 2
	.weak	_ZNSt15__new_allocatorIcE10deallocateEPcm
	.type	_ZNSt15__new_allocatorIcE10deallocateEPcm, @function
_ZNSt15__new_allocatorIcE10deallocateEPcm:
.LFB4912:
	.loc 12 156 7
	.cfi_startproc
	endbr64
	pushq	%rbp
	.cfi_def_cfa_offset 16
	.cfi_offset 6, -16
	movq	%rsp, %rbp
	.cfi_def_cfa_register 6
	subq	$32, %rsp
	movq	%rdi, -8(%rbp)
	movq	%rsi, -16(%rbp)
	movq	%rdx, -24(%rbp)
	.loc 12 172 19
	movq	-24(%rbp), %rdx
	movq	-16(%rbp), %rax
	movq	%rdx, %rsi
	movq	%rax, %rdi
	call	_ZdlPvm@PLT
	.loc 12 173 7
	leave
	.cfi_def_cfa 7, 8
	ret
	.cfi_endproc
.LFE4912:
	.size	_ZNSt15__new_allocatorIcE10deallocateEPcm, .-_ZNSt15__new_allocatorIcE10deallocateEPcm
	.section	.text._ZSt11__addressofIKcEPT_RS1_,"axG",@progbits,_ZSt11__addressofIKcEPT_RS1_,comdat
	.weak	_ZSt11__addressofIKcEPT_RS1_
	.type	_ZSt11__addressofIKcEPT_RS1_, @function
_ZSt11__addressofIKcEPT_RS1_:
.LFB4913:
	.loc 20 51 5
	.cfi_startproc
	endbr64
	pushq	%rbp
	.cfi_def_cfa_offset 16
	.cfi_offset 6, -16
	movq	%rsp, %rbp
	.cfi_def_cfa_register 6
	movq	%rdi, -8(%rbp)
	.loc 20 52 37
	movq	-8(%rbp), %rax
	.loc 20 52 40
	popq	%rbp
	.cfi_def_cfa 7, 8
	ret
	.cfi_endproc
.LFE4913:
	.size	_ZSt11__addressofIKcEPT_RS1_, .-_ZSt11__addressofIKcEPT_RS1_
	.section	.text._ZSt9addressofIKjEPT_RS1_,"axG",@progbits,_ZSt9addressofIKjEPT_RS1_,comdat
	.weak	_ZSt9addressofIKjEPT_RS1_
	.type	_ZSt9addressofIKjEPT_RS1_, @function
_ZSt9addressofIKjEPT_RS1_:
.LFB4927:
	.loc 20 138 5
	.cfi_startproc
	endbr64
	pushq	%rbp
	.cfi_def_cfa_offset 16
	.cfi_offset 6, -16
	movq	%rsp, %rbp
	.cfi_def_cfa_register 6
	subq	$16, %rsp
	movq	%rdi, -8(%rbp)
	.loc 20 139 30
	movq	-8(%rbp), %rax
	movq	%rax, %rdi
	call	_ZSt11__addressofIKjEPT_RS1_
	.loc 20 139 37
	leave
	.cfi_def_cfa 7, 8
	ret
	.cfi_endproc
.LFE4927:
	.size	_ZSt9addressofIKjEPT_RS1_, .-_ZSt9addressofIKjEPT_RS1_
	.section	.text._ZNSt15__new_allocatorIjE10deallocateEPjm,"axG",@progbits,_ZNSt15__new_allocatorIjE10deallocateEPjm,comdat
	.align 2
	.weak	_ZNSt15__new_allocatorIjE10deallocateEPjm
	.type	_ZNSt15__new_allocatorIjE10deallocateEPjm, @function
_ZNSt15__new_allocatorIjE10deallocateEPjm:
.LFB4928:
	.loc 12 156 7
	.cfi_startproc
	endbr64
	pushq	%rbp
	.cfi_def_cfa_offset 16
	.cfi_offset 6, -16
	movq	%rsp, %rbp
	.cfi_def_cfa_register 6
	subq	$32, %rsp
	movq	%rdi, -8(%rbp)
	movq	%rsi, -16(%rbp)
	movq	%rdx, -24(%rbp)
	.loc 12 172 19
	movq	-24(%rbp), %rax
	leaq	0(,%rax,4), %rdx
	movq	-16(%rbp), %rax
	movq	%rdx, %rsi
	movq	%rax, %rdi
	call	_ZdlPvm@PLT
	.loc 12 173 7
	leave
	.cfi_def_cfa 7, 8
	ret
	.cfi_endproc
.LFE4928:
	.size	_ZNSt15__new_allocatorIjE10deallocateEPjm, .-_ZNSt15__new_allocatorIjE10deallocateEPjm
	.section	.text._ZNSt15__new_allocatorIN2sf6VertexEE10deallocateEPS1_m,"axG",@progbits,_ZNSt15__new_allocatorIN2sf6VertexEE10deallocateEPS1_m,comdat
	.align 2
	.weak	_ZNSt15__new_allocatorIN2sf6VertexEE10deallocateEPS1_m
	.type	_ZNSt15__new_allocatorIN2sf6VertexEE10deallocateEPS1_m, @function
_ZNSt15__new_allocatorIN2sf6VertexEE10deallocateEPS1_m:
.LFB4929:
	.loc 12 156 7
	.cfi_startproc
	endbr64
	pushq	%rbp
	.cfi_def_cfa_offset 16
	.cfi_offset 6, -16
	movq	%rsp, %rbp
	.cfi_def_cfa_register 6
	subq	$32, %rsp
	movq	%rdi, -8(%rbp)
	movq	%rsi, -16(%rbp)
	movq	%rdx, -24(%rbp)
	.loc 12 172 19
	movq	-24(%rbp), %rdx
	movq	%rdx, %rax
	salq	$2, %rax
	addq	%rdx, %rax
	salq	$2, %rax
	movq	%rax, %rdx
	movq	-16(%rbp), %rax
	movq	%rdx, %rsi
	movq	%rax, %rdi
	call	_ZdlPvm@PLT
	.loc 12 173 7
	leave
	.cfi_def_cfa 7, 8
	ret
	.cfi_endproc
.LFE4929:
	.size	_ZNSt15__new_allocatorIN2sf6VertexEE10deallocateEPS1_m, .-_ZNSt15__new_allocatorIN2sf6VertexEE10deallocateEPS1_m
	.section	.text._ZSt10destroy_atIN2sf6VertexEEvPT_,"axG",@progbits,_ZSt10destroy_atIN2sf6VertexEEvPT_,comdat
	.weak	_ZSt10destroy_atIN2sf6VertexEEvPT_
	.type	_ZSt10destroy_atIN2sf6VertexEEvPT_, @function
_ZSt10destroy_atIN2sf6VertexEEvPT_:
.LFB4930:
	.loc 14 80 5
	.cfi_startproc
	endbr64
	pushq	%rbp
	.cfi_def_cfa_offset 16
	.cfi_offset 6, -16
	movq	%rsp, %rbp
	.cfi_def_cfa_register 6
	movq	%rdi, -8(%rbp)
	.loc 14 89 5
	nop
	popq	%rbp
	.cfi_def_cfa 7, 8
	ret
	.cfi_endproc
.LFE4930:
	.size	_ZSt10destroy_atIN2sf6VertexEEvPT_, .-_ZSt10destroy_atIN2sf6VertexEEvPT_
	.section	.text._ZNSt15__new_allocatorIcE8allocateEmPKv,"axG",@progbits,_ZNSt15__new_allocatorIcE8allocateEmPKv,comdat
	.align 2
	.weak	_ZNSt15__new_allocatorIcE8allocateEmPKv
	.type	_ZNSt15__new_allocatorIcE8allocateEmPKv, @function
_ZNSt15__new_allocatorIcE8allocateEmPKv:
.LFB4931:
	.loc 12 126 7
	.cfi_startproc
	endbr64
	pushq	%rbp
	.cfi_def_cfa_offset 16
	.cfi_offset 6, -16
	movq	%rsp, %rbp
	.cfi_def_cfa_register 6
	subq	$48, %rsp
	movq	%rdi, -24(%rbp)
	movq	%rsi, -32(%rbp)
	movq	%rdx, -40(%rbp)
	movq	-24(%rbp), %rax
	movq	%rax, -8(%rbp)
.LBB250:
.LBB251:
	.loc 12 233 54
	movabsq	$9223372036854775807, %rax
.LBE251:
.LBE250:
	.loc 12 134 27 discriminator 1
	cmpq	-32(%rbp), %rax
	setb	%al
	.loc 12 134 22 discriminator 1
	movzbl	%al, %eax
	.loc 12 134 22 is_stmt 0 discriminator 2
	testq	%rax, %rax
	setne	%al
	.loc 12 134 2 is_stmt 1 discriminator 2
	testb	%al, %al
	je	.L271
	.loc 12 140 28
	call	_ZSt17__throw_bad_allocv@PLT
.L271:
	.loc 12 151 41
	movq	-32(%rbp), %rax
	movq	%rax, %rdi
	call	_Znwm@PLT
	.loc 12 151 60
	nop
	.loc 12 152 7
	leave
	.cfi_def_cfa 7, 8
	ret
	.cfi_endproc
.LFE4931:
	.size	_ZNSt15__new_allocatorIcE8allocateEmPKv, .-_ZNSt15__new_allocatorIcE8allocateEmPKv
	.section	.text._ZSt11__addressofIKjEPT_RS1_,"axG",@progbits,_ZSt11__addressofIKjEPT_RS1_,comdat
	.weak	_ZSt11__addressofIKjEPT_RS1_
	.type	_ZSt11__addressofIKjEPT_RS1_, @function
_ZSt11__addressofIKjEPT_RS1_:
.LFB4940:
	.loc 20 51 5
	.cfi_startproc
	endbr64
	pushq	%rbp
	.cfi_def_cfa_offset 16
	.cfi_offset 6, -16
	movq	%rsp, %rbp
	.cfi_def_cfa_register 6
	movq	%rdi, -8(%rbp)
	.loc 20 52 37
	movq	-8(%rbp), %rax
	.loc 20 52 40
	popq	%rbp
	.cfi_def_cfa 7, 8
	ret
	.cfi_endproc
.LFE4940:
	.size	_ZSt11__addressofIKjEPT_RS1_, .-_ZSt11__addressofIKjEPT_RS1_
	.weak	_ZTVN2sf8DrawableE
	.section	.data.rel.ro._ZTVN2sf8DrawableE,"awG",@progbits,_ZTVN2sf8DrawableE,comdat
	.align 8
	.type	_ZTVN2sf8DrawableE, @object
	.size	_ZTVN2sf8DrawableE, 40
_ZTVN2sf8DrawableE:
	.quad	0
	.quad	_ZTIN2sf8DrawableE
	.quad	0
	.quad	0
	.quad	__cxa_pure_virtual
	.weak	_ZTIN2sf8DrawableE
	.section	.data.rel.ro._ZTIN2sf8DrawableE,"awG",@progbits,_ZTIN2sf8DrawableE,comdat
	.align 8
	.type	_ZTIN2sf8DrawableE, @object
	.size	_ZTIN2sf8DrawableE, 16
_ZTIN2sf8DrawableE:
	.quad	_ZTVN10__cxxabiv117__class_type_infoE+16
	.quad	_ZTSN2sf8DrawableE
	.weak	_ZTSN2sf8DrawableE
	.section	.rodata._ZTSN2sf8DrawableE,"aG",@progbits,_ZTSN2sf8DrawableE,comdat
	.align 8
	.type	_ZTSN2sf8DrawableE, @object
	.size	_ZTSN2sf8DrawableE, 15
_ZTSN2sf8DrawableE:
	.string	"N2sf8DrawableE"
	.section	.rodata
	.type	_ZNSt8__detail14__destructibleISt13_Bit_iteratorEE, @object
	.size	_ZNSt8__detail14__destructibleISt13_Bit_iteratorEE, 1
_ZNSt8__detail14__destructibleISt13_Bit_iteratorEE:
	.byte	1
	.type	_ZNSt8__detail19__destructible_implISt13_Bit_iteratorEE, @object
	.size	_ZNSt8__detail19__destructible_implISt13_Bit_iteratorEE, 1
_ZNSt8__detail19__destructible_implISt13_Bit_iteratorEE:
	.byte	1
	.type	_ZNSt8__detail14__destructibleISt19_Bit_const_iteratorEE, @object
	.size	_ZNSt8__detail14__destructibleISt19_Bit_const_iteratorEE, 1
_ZNSt8__detail14__destructibleISt19_Bit_const_iteratorEE:
	.byte	1
	.type	_ZNSt8__detail19__destructible_implISt19_Bit_const_iteratorEE, @object
	.size	_ZNSt8__detail19__destructible_implISt19_Bit_const_iteratorEE, 1
_ZNSt8__detail19__destructible_implISt19_Bit_const_iteratorEE:
	.byte	1
	.type	_ZNSt8__detail30__integer_to_chars_is_unsignedIjEE, @object
	.size	_ZNSt8__detail30__integer_to_chars_is_unsignedIjEE, 1
_ZNSt8__detail30__integer_to_chars_is_unsignedIjEE:
	.byte	1
	.type	_ZNSt8__detail30__integer_to_chars_is_unsignedImEE, @object
	.size	_ZNSt8__detail30__integer_to_chars_is_unsignedImEE, 1
_ZNSt8__detail30__integer_to_chars_is_unsignedImEE:
	.byte	1
	.type	_ZNSt8__detail30__integer_to_chars_is_unsignedIyEE, @object
	.size	_ZNSt8__detail30__integer_to_chars_is_unsignedIyEE, 1
_ZNSt8__detail30__integer_to_chars_is_unsignedIyEE:
	.byte	1
	.align 4
.LC8:
	.long	1120403456
	.align 4
.LC9:
	.long	1082130432
	.align 4
.LC10:
	.long	1128792064
	.weak	__cxa_pure_virtual
	.text
.Letext0:
	.file 25 "/usr/include/SFML/System/NonCopyable.hpp"
	.file 26 "/usr/include/SFML/Config.hpp"
	.file 27 "/usr/include/SFML/Window/GlResource.hpp"
	.file 28 "/usr/include/SFML/System/Vector2.hpp"
	.file 29 "/usr/include/SFML/Window/Joystick.hpp"
	.file 30 "/usr/include/SFML/Window/Keyboard.hpp"
	.file 31 "/usr/include/SFML/Window/Mouse.hpp"
	.file 32 "/usr/include/SFML/Window/WindowBase.hpp"
	.file 33 "/usr/include/SFML/Window/Sensor.hpp"
	.file 34 "/usr/include/SFML/System/Vector3.hpp"
	.file 35 "/usr/include/SFML/Window/Event.hpp"
	.file 36 "/usr/include/SFML/Window/VideoMode.hpp"
	.file 37 "/usr/include/SFML/System/Mutex.hpp"
	.file 38 "/usr/include/SFML/Window/WindowStyle.hpp"
	.file 39 "/usr/include/SFML/Graphics/BlendMode.hpp"
	.file 40 "/usr/include/SFML/Graphics/Transform.hpp"
	.file 41 "/usr/include/SFML/Graphics/Rect.hpp"
	.file 42 "/usr/include/SFML/Graphics/RenderStates.hpp"
	.file 43 "/usr/include/SFML/Graphics/Texture.hpp"
	.file 44 "/usr/include/SFML/Graphics/Shader.hpp"
	.file 45 "/usr/include/SFML/Graphics/Color.hpp"
	.file 46 "/usr/include/SFML/Graphics/Vertex.hpp"
	.file 47 "/usr/include/SFML/Graphics/Glyph.hpp"
	.file 48 "/usr/include/SFML/Graphics/Image.hpp"
	.file 49 "/usr/include/SFML/System/InputStream.hpp"
	.file 50 "/usr/include/SFML/Window/Window.hpp"
	.file 51 "/usr/include/SFML/Graphics/Font.hpp"
	.file 52 "/usr/include/SFML/Graphics/RenderTarget.hpp"
	.file 53 "/usr/include/SFML/Graphics/Glsl.hpp"
	.file 54 "/usr/include/SFML/Graphics/Transformable.hpp"
	.file 55 "/usr/include/SFML/Graphics/RenderWindow.hpp"
	.file 56 "/usr/lib/gcc/x86_64-linux-gnu/13/include/stddef.h"
	.file 57 "<built-in>"
	.file 58 "/usr/include/x86_64-linux-gnu/bits/types/wint_t.h"
	.file 59 "/usr/include/x86_64-linux-gnu/bits/types/__mbstate_t.h"
	.file 60 "/usr/include/x86_64-linux-gnu/bits/types/mbstate_t.h"
	.file 61 "/usr/include/x86_64-linux-gnu/bits/types/__FILE.h"
	.file 62 "/usr/include/x86_64-linux-gnu/bits/types/struct_FILE.h"
	.file 63 "/usr/include/x86_64-linux-gnu/bits/types/FILE.h"
	.file 64 "/usr/include/c++/13/cwchar"
	.file 65 "/usr/include/c++/13/bits/exception_ptr.h"
	.file 66 "/usr/include/c++/13/concepts"
	.file 67 "/usr/include/c++/13/bits/iterator_concepts.h"
	.file 68 "/usr/include/c++/13/bits/ranges_cmp.h"
	.file 69 "/usr/include/c++/13/compare"
	.file 70 "/usr/include/c++/13/bits/charconv.h"
	.file 71 "/usr/include/c++/13/clocale"
	.file 72 "/usr/include/c++/13/debug/debug.h"
	.file 73 "/usr/include/c++/13/numbers"
	.file 74 "/usr/include/c++/13/string_view"
	.file 75 "/usr/include/c++/13/cstdlib"
	.file 76 "/usr/include/c++/13/cstdio"
	.file 77 "/usr/include/c++/13/initializer_list"
	.file 78 "/usr/include/c++/13/cstddef"
	.file 79 "/usr/include/c++/13/bits/locale_classes.h"
	.file 80 "/usr/include/c++/13/bits/stringfwd.h"
	.file 81 "/usr/include/c++/13/cwctype"
	.file 82 "/usr/include/c++/13/ctime"
	.file 83 "/usr/include/c++/13/bits/vector.tcc"
	.file 84 "/usr/include/c++/13/bits/stl_tree.h"
	.file 85 "/usr/include/c++/13/bits/stl_pair.h"
	.file 86 "/usr/include/c++/13/bits/stl_function.h"
	.file 87 "/usr/include/c++/13/bits/stl_map.h"
	.file 88 "/usr/include/c++/13/iosfwd"
	.file 89 "/usr/include/c++/13/iostream"
	.file 90 "/usr/include/c++/13/bits/functexcept.h"
	.file 91 "/usr/include/c++/13/ostream"
	.file 92 "/usr/include/wchar.h"
	.file 93 "/usr/include/x86_64-linux-gnu/bits/types/struct_tm.h"
	.file 94 "/usr/include/c++/13/bits/predefined_ops.h"
	.file 95 "/usr/include/c++/13/ext/alloc_traits.h"
	.file 96 "/usr/include/c++/13/bits/stl_iterator.h"
	.file 97 "/usr/include/locale.h"
	.file 98 "/usr/include/x86_64-linux-gnu/bits/types.h"
	.file 99 "/usr/include/x86_64-linux-gnu/bits/types/time_t.h"
	.file 100 "/usr/include/x86_64-linux-gnu/bits/types/struct_timespec.h"
	.file 101 "/usr/include/x86_64-linux-gnu/bits/types/clock_t.h"
	.file 102 "/usr/include/x86_64-linux-gnu/c++/13/bits/atomic_word.h"
	.file 103 "/usr/include/stdlib.h"
	.file 104 "/usr/include/x86_64-linux-gnu/bits/types/__fpos_t.h"
	.file 105 "/usr/include/stdio.h"
	.file 106 "/usr/include/x86_64-linux-gnu/bits/wctype-wchar.h"
	.file 107 "/usr/include/wctype.h"
	.file 108 "/usr/include/c++/13/pstl/execution_defs.h"
	.file 109 "/usr/include/c++/13/system_error"
	.file 110 "/usr/include/time.h"
	.file 111 "headers/render.hpp"
	.file 112 "/usr/include/c++/13/bits/memory_resource.h"